

Microchip MPLAB XC8 Assembler V2.05 build -831301201 
                                                                                               Fri Jun  7 22:00:07 2019

Microchip MPLAB XC8 C Compiler v2.05 (Free license) build 20181220022703 Og1 
     1                           	processor	16F88
     2                           	opt	pw 120
     3                           	opt	flic
     4                           	psect	idataCOMMON,global,class=CODE,delta=2
     5                           	psect	cinit,global,class=CODE,merge=1,delta=2
     6                           	psect	bssCOMMON,global,class=COMMON,space=1,delta=1
     7                           	psect	dataCOMMON,global,class=COMMON,space=1,delta=1
     8                           	psect	cstackBANK1,global,class=BANK1,space=1,delta=1
     9                           	psect	cstackCOMMON,global,class=COMMON,space=1,delta=1
    10                           	psect	cstackBANK0,global,class=BANK0,space=1,delta=1
    11                           	psect	maintext,global,class=CODE,split=1,delta=2
    12                           	psect	text1,local,class=CODE,merge=1,delta=2
    13                           	psect	text2,local,class=CODE,merge=1,delta=2
    14                           	psect	text3,local,class=CODE,merge=1,delta=2
    15                           	psect	text4,local,class=CODE,merge=1,delta=2
    16                           	psect	text5,local,class=CODE,merge=1,delta=2
    17                           	psect	text6,local,class=CODE,merge=1,delta=2
    18                           	psect	text7,local,class=CODE,merge=1,delta=2,group=1
    19                           	psect	text8,local,class=CODE,merge=1,delta=2,group=1
    20                           	psect	text9,local,class=CODE,merge=1,delta=2,group=1
    21                           	psect	text10,local,class=CODE,merge=1,delta=2
    22                           	psect	text11,local,class=CODE,merge=1,delta=2
    23                           	psect	text12,local,class=CODE,merge=1,delta=2
    24                           	psect	text13,local,class=CODE,merge=1,delta=2,group=1
    25                           	psect	text14,local,class=CODE,merge=1,delta=2
    26                           	psect	text15,local,class=CODE,merge=1,delta=2,group=1
    27                           	psect	text16,local,class=CODE,merge=1,delta=2
    28                           	psect	intentry,global,class=CODE,delta=2
    29                           	psect	text17,local,class=CODE,merge=1,delta=2
    30                           	psect	text18,local,class=CODE,merge=1,delta=2
    31                           	psect	text19,local,class=CODE,merge=1,delta=2
    32                           	dabs	1,0x7E,2
    33  0000                     
    34                           ; Version 2.05
    35                           ; Generated 20/12/2018 GMT
    36                           ; 
    37                           ; Copyright © 2018, Microchip Technology Inc. and its subsidiaries ("Microchip")
    38                           ; All rights reserved.
    39                           ; 
    40                           ; This software is developed by Microchip Technology Inc. and its subsidiaries ("Microch
      +                          ip").
    41                           ; 
    42                           ; Redistribution and use in source and binary forms, with or without modification, are
    43                           ; permitted provided that the following conditions are met:
    44                           ; 
    45                           ;     1. Redistributions of source code must retain the above copyright notice, this lis
      +                          t of
    46                           ;        conditions and the following disclaimer.
    47                           ; 
    48                           ;     2. Redistributions in binary form must reproduce the above copyright notice, this 
      +                          list
    49                           ;        of conditions and the following disclaimer in the documentation and/or other
    50                           ;        materials provided with the distribution.
    51                           ; 
    52                           ;     3. Microchip's name may not be used to endorse or promote products derived from th
      +                          is
    53                           ;        software without specific prior written permission.
    54                           ; 
    55                           ; THIS SOFTWARE IS PROVIDED BY MICROCHIP "AS IS" AND ANY EXPRESS OR IMPLIED WARRANTIES,
    56                           ; INCLUDING, BUT NOT LIMITED TO, THE IMPLIED WARRANTIES OF MERCHANTABILITY AND FITNESS F
      +                          OR
    57                           ; PURPOSE ARE DISCLAIMED.  IN NO EVENT SHALL MICROCHIP BE LIABLE FOR ANY DIRECT, INDIREC
      +                          T,
    58                           ; INCIDENTAL, SPECIAL, EXEMPLARY, OR CONSEQUENTIAL DAMAGES (INCLUDING BUT NOT LIMITED TO
    59                           ; PROCUREMENT OF SUBSTITUTE GOODS OR SERVICES; LOSS OF USE, DATA OR PROFITS; OR BUSINESS
    60                           ; INTERRUPTION) HOWSOEVER CAUSED AND ON ANY THEORY OF LIABILITY, WHETHER IN CONTRACT, ST
      +                          RICT
    61                           ; LIABILITY, OR TORT (INCLUDING NEGLIGENCE OR OTHERWISE) ARISING IN ANY WAY OUT OF THE U
      +                          SE OF
    62                           ; THIS SOFTWARE, EVEN IF ADVISED OF THE POSSIBILITY OF SUCH DAMAGE.
    63                           ; 
    64                           ; 
    65                           ; Code-generator required, PIC16F88 Definitions
    66                           ; 
    67                           ; SFR Addresses
    68  0000                     	;# 
    69  0001                     	;# 
    70  0002                     	;# 
    71  0003                     	;# 
    72  0004                     	;# 
    73  0005                     	;# 
    74  0006                     	;# 
    75  000A                     	;# 
    76  000B                     	;# 
    77  000C                     	;# 
    78  000D                     	;# 
    79  000E                     	;# 
    80  000E                     	;# 
    81  000F                     	;# 
    82  0010                     	;# 
    83  0011                     	;# 
    84  0012                     	;# 
    85  0013                     	;# 
    86  0014                     	;# 
    87  0015                     	;# 
    88  0015                     	;# 
    89  0016                     	;# 
    90  0017                     	;# 
    91  0018                     	;# 
    92  0019                     	;# 
    93  001A                     	;# 
    94  001E                     	;# 
    95  001F                     	;# 
    96  0081                     	;# 
    97  0085                     	;# 
    98  0086                     	;# 
    99  008C                     	;# 
   100  008D                     	;# 
   101  008E                     	;# 
   102  008F                     	;# 
   103  0090                     	;# 
   104  0092                     	;# 
   105  0093                     	;# 
   106  0094                     	;# 
   107  0098                     	;# 
   108  0099                     	;# 
   109  009B                     	;# 
   110  009C                     	;# 
   111  009D                     	;# 
   112  009E                     	;# 
   113  009F                     	;# 
   114  0105                     	;# 
   115  010C                     	;# 
   116  010D                     	;# 
   117  010E                     	;# 
   118  010F                     	;# 
   119  018C                     	;# 
   120  018D                     	;# 
   121  0000                     	;# 
   122  0001                     	;# 
   123  0002                     	;# 
   124  0003                     	;# 
   125  0004                     	;# 
   126  0005                     	;# 
   127  0006                     	;# 
   128  000A                     	;# 
   129  000B                     	;# 
   130  000C                     	;# 
   131  000D                     	;# 
   132  000E                     	;# 
   133  000E                     	;# 
   134  000F                     	;# 
   135  0010                     	;# 
   136  0011                     	;# 
   137  0012                     	;# 
   138  0013                     	;# 
   139  0014                     	;# 
   140  0015                     	;# 
   141  0015                     	;# 
   142  0016                     	;# 
   143  0017                     	;# 
   144  0018                     	;# 
   145  0019                     	;# 
   146  001A                     	;# 
   147  001E                     	;# 
   148  001F                     	;# 
   149  0081                     	;# 
   150  0085                     	;# 
   151  0086                     	;# 
   152  008C                     	;# 
   153  008D                     	;# 
   154  008E                     	;# 
   155  008F                     	;# 
   156  0090                     	;# 
   157  0092                     	;# 
   158  0093                     	;# 
   159  0094                     	;# 
   160  0098                     	;# 
   161  0099                     	;# 
   162  009B                     	;# 
   163  009C                     	;# 
   164  009D                     	;# 
   165  009E                     	;# 
   166  009F                     	;# 
   167  0105                     	;# 
   168  010C                     	;# 
   169  010D                     	;# 
   170  010E                     	;# 
   171  010F                     	;# 
   172  018C                     	;# 
   173  018D                     	;# 
   174                           
   175                           	psect	idataCOMMON
   176  0003                     __pidataCOMMON:	
   177                           
   178                           ;initializer for _mode
   179  0003  3430               	retlw	48
   180  000B                     _INTCONbits	set	11
   181  0010                     _T1CONbits	set	16
   182  000E                     _TMR1L	set	14
   183  000F                     _TMR1H	set	15
   184  000B                     _INTCON	set	11
   185  0010                     _T1CON	set	16
   186  0019                     _TXREG	set	25
   187  001A                     _RCREG	set	26
   188  0033                     _RB3	set	51
   189  0031                     _RB1	set	49
   190  0028                     _RA0	set	40
   191  0029                     _RA1	set	41
   192  002C                     _RA4	set	44
   193  0065                     _RCIF	set	101
   194  00C4                     _CREN	set	196
   195  00C7                     _SPEN	set	199
   196  009B                     _ANSEL	set	155
   197  008F                     _OSCCON	set	143
   198  0099                     _SPBRG	set	153
   199  042C                     _TRISA4	set	1068
   200  0428                     _TRISA0	set	1064
   201  0429                     _TRISA1	set	1065
   202  0433                     _TRISB3	set	1075
   203  0431                     _TRISB1	set	1073
   204  04C1                     _TRMT	set	1217
   205  04C5                     _TXEN	set	1221
   206  0435                     _TRISB5	set	1077
   207  0432                     _TRISB2	set	1074
   208  04C4                     _SYNC	set	1220
   209  04C2                     _BRGH	set	1218
   210                           
   211                           ; #config settings
   212  0000                     
   213                           	psect	cinit
   214  000D                     start_initialization:	
   215  000D                     __initialization:	
   216                           
   217                           ; Initialize objects allocated to COMMON
   218  000D  118A  2003         	fcall	__pidataCOMMON	;fetch initializer
   219  000F  00F8               	movwf	__pdataCOMMON& (0+127)
   220                           
   221                           ; Clear objects allocated to COMMON
   222  0010  01F6               	clrf	__pbssCOMMON& (0+127)
   223  0011  01F7               	clrf	(__pbssCOMMON+1)& (0+127)
   224  0012                     end_of_initialization:	
   225                           ;End of C runtime variable initialization code
   226                           
   227  0012                     __end_of__initialization:	
   228  0012  0183               	clrf	3
   229  0013  118A  2CBC         	ljmp	_main	;jump to C main() function
   230                           
   231                           	psect	bssCOMMON
   232  0076                     __pbssCOMMON:	
   233  0076                     _gap:	
   234  0076                     	ds	2
   235                           
   236                           	psect	dataCOMMON
   237  0078                     __pdataCOMMON:	
   238  0078                     _mode:	
   239  0078                     	ds	1
   240                           
   241                           	psect	cstackBANK1
   242  00A0                     __pcstackBANK1:	
   243  00A0                     distanceBack@arr:	
   244  00A0                     distanceFront@arr:	
   245                           ; 40 bytes @ 0x0
   246                           
   247                           
   248                           ; 40 bytes @ 0x0
   249  00A0                     	ds	40
   250  00C8                     distanceBack@i:	
   251  00C8                     distanceFront@i:	
   252                           ; 2 bytes @ 0x28
   253                           
   254                           
   255                           ; 2 bytes @ 0x28
   256  00C8                     	ds	2
   257                           
   258                           	psect	cstackCOMMON
   259  0070                     __pcstackCOMMON:	
   260  0070                     ?_changeMode:	
   261  0070                     ?_UART_Write:	
   262                           ; 1 bytes @ 0x0
   263                           
   264  0070                     ?_main:	
   265                           ; 1 bytes @ 0x0
   266                           
   267  0070                     ?_writeData:	
   268                           ; 1 bytes @ 0x0
   269                           
   270  0070                     ?_isr:	
   271                           ; 1 bytes @ 0x0
   272                           
   273  0070                     ?i1_UART_Write:	
   274                           ; 1 bytes @ 0x0
   275                           
   276  0070                     ??i1_UART_Write:	
   277                           ; 1 bytes @ 0x0
   278                           
   279  0070                     ?i1_writeData:	
   280                           ; 1 bytes @ 0x0
   281                           
   282  0070                     ?i1_changeMode:	
   283                           ; 1 bytes @ 0x0
   284                           
   285  0070                     ?_distanceBack:	
   286                           ; 1 bytes @ 0x0
   287                           
   288  0070                     i1UART_Write@data:	
   289                           ; 4 bytes @ 0x0
   290                           
   291                           
   292                           ; 1 bytes @ 0x0
   293  0070                     	ds	1
   294  0071                     ??i1_writeData:	
   295  0071                     i1writeData@c:	
   296                           ; 1 bytes @ 0x1
   297                           
   298                           
   299                           ; 1 bytes @ 0x1
   300  0071                     	ds	1
   301  0072                     ??i1_changeMode:	
   302                           
   303                           ; 1 bytes @ 0x2
   304  0072                     	ds	1
   305  0073                     i1changeMode@m:	
   306                           
   307                           ; 1 bytes @ 0x3
   308  0073                     	ds	1
   309  0074                     ??_isr:	
   310                           
   311                           ; 1 bytes @ 0x4
   312  0074                     	ds	2
   313                           
   314                           	psect	cstackBANK0
   315  0020                     __pcstackBANK0:	
   316  0020                     ??_UART_Write:	
   317  0020                     ?___aldiv:	
   318                           ; 1 bytes @ 0x0
   319                           
   320  0020                     ?___fladd:	
   321                           ; 4 bytes @ 0x0
   322                           
   323  0020                     ?___xxtofl:	
   324                           ; 4 bytes @ 0x0
   325                           
   326  0020                     UART_Write@data:	
   327                           ; 4 bytes @ 0x0
   328                           
   329  0020                     ___aldiv@divisor:	
   330                           ; 1 bytes @ 0x0
   331                           
   332  0020                     ___fladd@b:	
   333                           ; 4 bytes @ 0x0
   334                           
   335  0020                     ___xxtofl@val:	
   336                           ; 4 bytes @ 0x0
   337                           
   338                           
   339                           ; 4 bytes @ 0x0
   340  0020                     	ds	1
   341  0021                     ??_writeData:	
   342  0021                     writeData@c:	
   343                           ; 1 bytes @ 0x1
   344                           
   345                           
   346                           ; 1 bytes @ 0x1
   347  0021                     	ds	1
   348  0022                     ??_changeMode:	
   349                           
   350                           ; 1 bytes @ 0x2
   351  0022                     	ds	1
   352  0023                     changeMode@m:	
   353                           
   354                           ; 1 bytes @ 0x3
   355  0023                     	ds	1
   356  0024                     ??___xxtofl:	
   357  0024                     ___aldiv@dividend:	
   358                           ; 1 bytes @ 0x4
   359                           
   360  0024                     ___fladd@a:	
   361                           ; 4 bytes @ 0x4
   362                           
   363                           
   364                           ; 4 bytes @ 0x4
   365  0024                     	ds	4
   366  0028                     ??___aldiv:	
   367  0028                     ??___fladd:	
   368                           ; 1 bytes @ 0x8
   369                           
   370  0028                     ___xxtofl@sign:	
   371                           ; 1 bytes @ 0x8
   372                           
   373                           
   374                           ; 1 bytes @ 0x8
   375  0028                     	ds	1
   376  0029                     ___aldiv@counter:	
   377  0029                     ___xxtofl@exp:	
   378                           ; 1 bytes @ 0x9
   379                           
   380                           
   381                           ; 1 bytes @ 0x9
   382  0029                     	ds	1
   383  002A                     ___aldiv@sign:	
   384  002A                     ___xxtofl@arg:	
   385                           ; 1 bytes @ 0xA
   386                           
   387                           
   388                           ; 4 bytes @ 0xA
   389  002A                     	ds	1
   390  002B                     ___aldiv@quotient:	
   391                           
   392                           ; 4 bytes @ 0xB
   393  002B                     	ds	3
   394  002E                     ?___fldiv:	
   395  002E                     ___fldiv@a:	
   396                           ; 4 bytes @ 0xE
   397                           
   398                           
   399                           ; 4 bytes @ 0xE
   400  002E                     	ds	1
   401  002F                     ?_UART_Init:	
   402  002F                     UART_Init@baudrate:	
   403                           ; 1 bytes @ 0xF
   404                           
   405                           
   406                           ; 4 bytes @ 0xF
   407  002F                     	ds	1
   408  0030                     ___fladd@signs:	
   409                           
   410                           ; 1 bytes @ 0x10
   411  0030                     	ds	1
   412  0031                     ___fladd@aexp:	
   413                           
   414                           ; 1 bytes @ 0x11
   415  0031                     	ds	1
   416  0032                     ___fladd@bexp:	
   417  0032                     ___fldiv@b:	
   418                           ; 1 bytes @ 0x12
   419                           
   420                           
   421                           ; 4 bytes @ 0x12
   422  0032                     	ds	1
   423  0033                     ??_UART_Init:	
   424  0033                     ___fladd@grs:	
   425                           ; 1 bytes @ 0x13
   426                           
   427                           
   428                           ; 1 bytes @ 0x13
   429  0033                     	ds	3
   430  0036                     ??___fldiv:	
   431                           
   432                           ; 1 bytes @ 0x16
   433  0036                     	ds	5
   434  003B                     ___fldiv@rem:	
   435                           
   436                           ; 4 bytes @ 0x1B
   437  003B                     	ds	4
   438  003F                     ___fldiv@sign:	
   439  003F                     UART_Init@x:	
   440                           ; 1 bytes @ 0x1F
   441                           
   442                           
   443                           ; 2 bytes @ 0x1F
   444  003F                     	ds	1
   445  0040                     ___fldiv@new_exp:	
   446                           
   447                           ; 2 bytes @ 0x20
   448  0040                     	ds	2
   449  0042                     ___fldiv@grs:	
   450                           
   451                           ; 4 bytes @ 0x22
   452  0042                     	ds	4
   453  0046                     ___fldiv@bexp:	
   454                           
   455                           ; 1 bytes @ 0x26
   456  0046                     	ds	1
   457  0047                     ___fldiv@aexp:	
   458                           
   459                           ; 1 bytes @ 0x27
   460  0047                     	ds	1
   461  0048                     ?_calculateDistance:	
   462  0048                     ?_average:	
   463                           ; 4 bytes @ 0x28
   464                           
   465  0048                     average@l:	
   466                           ; 4 bytes @ 0x28
   467                           
   468  0048                     calculateDistance@d:	
   469                           ; 2 bytes @ 0x28
   470                           
   471                           
   472                           ; 4 bytes @ 0x28
   473  0048                     	ds	4
   474  004C                     ??_calculateDistance:	
   475  004C                     ??_average:	
   476                           ; 1 bytes @ 0x2C
   477                           
   478  004C                     ?_ultrasonicBack:	
   479                           ; 1 bytes @ 0x2C
   480                           
   481  004C                     ?_ultrasonicFront:	
   482                           ; 4 bytes @ 0x2C
   483                           
   484                           
   485                           ; 4 bytes @ 0x2C
   486  004C                     	ds	2
   487  004E                     average@arr:	
   488                           
   489                           ; 1 bytes @ 0x2E
   490  004E                     	ds	1
   491  004F                     average@sum:	
   492                           
   493                           ; 4 bytes @ 0x2F
   494  004F                     	ds	1
   495  0050                     ??_ultrasonicBack:	
   496  0050                     ??_ultrasonicFront:	
   497                           ; 1 bytes @ 0x30
   498                           
   499                           
   500                           ; 1 bytes @ 0x30
   501  0050                     	ds	2
   502  0052                     ultrasonicBack@distance:	
   503  0052                     ultrasonicFront@distance:	
   504                           ; 4 bytes @ 0x32
   505                           
   506                           
   507                           ; 4 bytes @ 0x32
   508  0052                     	ds	1
   509  0053                     average@i:	
   510                           
   511                           ; 2 bytes @ 0x33
   512  0053                     	ds	3
   513  0056                     ??_distanceBack:	
   514  0056                     ?_distanceFront:	
   515                           ; 1 bytes @ 0x36
   516                           
   517                           
   518                           ; 4 bytes @ 0x36
   519  0056                     	ds	4
   520  005A                     ??_distanceFront:	
   521                           
   522                           ; 1 bytes @ 0x3A
   523  005A                     	ds	1
   524  005B                     ?___flge:	
   525  005B                     ___flge@ff1:	
   526                           ; 1 bit 
   527                           
   528                           
   529                           ; 4 bytes @ 0x3B
   530  005B                     	ds	4
   531  005F                     ___flge@ff2:	
   532                           
   533                           ; 4 bytes @ 0x3F
   534  005F                     	ds	4
   535  0063                     ??___flge:	
   536                           
   537                           ; 1 bytes @ 0x43
   538  0063                     	ds	4
   539  0067                     ??_main:	
   540                           
   541                           ; 1 bytes @ 0x47
   542  0067                     	ds	3
   543                           
   544                           	psect	maintext
   545  04BC                     __pmaintext:	
   546 ;;
   547 ;;Main: autosize = 0, tempsize = 3, incstack = 0, save=0
   548 ;;
   549 ;; *************** function _main *****************
   550 ;; Defined at:
   551 ;;		line 50 in file "main.c"
   552 ;; Parameters:    Size  Location     Type
   553 ;;		None
   554 ;; Auto vars:     Size  Location     Type
   555 ;;		None
   556 ;; Return value:  Size  Location     Type
   557 ;;                  1    wreg      void 
   558 ;; Registers used:
   559 ;;		wreg, fsr0l, fsr0h, status,2, status,0, btemp+1, pclath, cstack
   560 ;; Tracked objects:
   561 ;;		On entry : B00/0
   562 ;;		On exit  : 0/0
   563 ;;		Unchanged: 0/0
   564 ;; Data sizes:     COMMON   BANK0   BANK1   BANK3   BANK2
   565 ;;      Params:         0       0       0       0       0
   566 ;;      Locals:         0       0       0       0       0
   567 ;;      Temps:          0       3       0       0       0
   568 ;;      Totals:         0       3       0       0       0
   569 ;;Total ram usage:        3 bytes
   570 ;; Hardware stack levels required when called:    8
   571 ;; This function calls:
   572 ;;		_UART_Init
   573 ;;		___flge
   574 ;;		_changeMode
   575 ;;		_distanceBack
   576 ;;		_distanceFront
   577 ;; This function is called by:
   578 ;;		Startup code after reset
   579 ;; This function uses a non-reentrant model
   580 ;;
   581                           
   582                           
   583                           ;psect for function _main
   584  04BC                     _main:	
   585                           
   586                           ;main.c: 51:     OSCCON = 0b01101000;
   587                           
   588                           ;incstack = 0
   589                           ; Regs used in _main: [wreg-fsr0h+status,2+status,0+btemp+1+pclath+cstack]
   590  04BC  3068               	movlw	104
   591  04BD  1683               	bsf	3,5	;RP0=1, select bank1
   592  04BE  1303               	bcf	3,6	;RP1=0, select bank1
   593  04BF  008F               	movwf	15	;volatile
   594                           
   595                           ;main.c: 52:     TRISB1 = 0;
   596  04C0  1086               	bcf	6,1	;volatile
   597                           
   598                           ;main.c: 53:     TRISB3 = 1;
   599  04C1  1586               	bsf	6,3	;volatile
   600                           
   601                           ;main.c: 54:     TRISA1 = 0;
   602  04C2  1085               	bcf	5,1	;volatile
   603                           
   604                           ;main.c: 55:     TRISA0 = 1;
   605  04C3  1405               	bsf	5,0	;volatile
   606                           
   607                           ;main.c: 56:     ANSEL = 0;
   608  04C4  019B               	clrf	27	;volatile
   609                           
   610                           ;main.c: 57:     T1CON = 0x10;
   611  04C5  3010               	movlw	16
   612  04C6  1283               	bcf	3,5	;RP0=0, select bank0
   613  04C7  1303               	bcf	3,6	;RP1=0, select bank0
   614  04C8  0090               	movwf	16	;volatile
   615                           
   616                           ;main.c: 58:     INTCON = 0b10010000;
   617  04C9  3090               	movlw	144
   618  04CA  008B               	movwf	11	;volatile
   619                           
   620                           ;main.c: 59:     UART_Init(9600);
   621  04CB  3000               	movlw	0
   622  04CC  00B2               	movwf	UART_Init@baudrate+3
   623  04CD  3000               	movlw	0
   624  04CE  00B1               	movwf	UART_Init@baudrate+2
   625  04CF  3025               	movlw	37
   626  04D0  00B0               	movwf	UART_Init@baudrate+1
   627  04D1  3080               	movlw	128
   628  04D2  00AF               	movwf	UART_Init@baudrate
   629  04D3  118A  23E7  118A   	fcall	_UART_Init
   630                           
   631                           ;main.c: 60:     TRISA4 = 0;
   632  04D6  1683               	bsf	3,5	;RP0=1, select bank1
   633  04D7  1303               	bcf	3,6	;RP1=0, select bank1
   634  04D8  1205               	bcf	5,4	;volatile
   635                           
   636                           ;main.c: 61:     RA4 = 1;
   637  04D9  1283               	bcf	3,5	;RP0=0, select bank0
   638  04DA  1303               	bcf	3,6	;RP1=0, select bank0
   639  04DB  1605               	bsf	5,4	;volatile
   640                           
   641                           ;main.c: 62:     changeMode('0');
   642  04DC  3030               	movlw	48
   643  04DD  118A  27F5  118A   	fcall	_changeMode
   644                           
   645                           ;main.c: 63:     _delay((unsigned long)((5000)*(4000000/4000.0)));
   646  04E0  301A               	movlw	26
   647  04E1  1283               	bcf	3,5	;RP0=0, select bank0
   648  04E2  1303               	bcf	3,6	;RP1=0, select bank0
   649  04E3  00E9               	movwf	??_main+2
   650  04E4  305E               	movlw	94
   651  04E5  00E8               	movwf	??_main+1
   652  04E6  306D               	movlw	109
   653  04E7  00E7               	movwf	??_main
   654  04E8                     u2947:	
   655  04E8  0BE7               	decfsz	??_main,f
   656  04E9  2CE8               	goto	u2947
   657  04EA  0BE8               	decfsz	??_main+1,f
   658  04EB  2CE8               	goto	u2947
   659  04EC  0BE9               	decfsz	??_main+2,f
   660  04ED  2CE8               	goto	u2947
   661  04EE  2CEF               	nop2
   662                           
   663                           ;main.c: 64:     distanceFront();
   664  04EF  158A  27B6  118A   	fcall	_distanceFront
   665                           
   666                           ;main.c: 65:     RA4 = 0;
   667  04F2  1283               	bcf	3,5	;RP0=0, select bank0
   668  04F3  1303               	bcf	3,6	;RP1=0, select bank0
   669  04F4  1205               	bcf	5,4	;volatile
   670                           
   671                           ;main.c: 66:     _delay((unsigned long)((200)*(4000000/4000.0)));
   672  04F5  3002               	movlw	2
   673  04F6  1283               	bcf	3,5	;RP0=0, select bank0
   674  04F7  1303               	bcf	3,6	;RP1=0, select bank0
   675  04F8  00E9               	movwf	??_main+2
   676  04F9  3004               	movlw	4
   677  04FA  00E8               	movwf	??_main+1
   678  04FB  30B9               	movlw	185
   679  04FC  00E7               	movwf	??_main
   680  04FD                     u2957:	
   681  04FD  0BE7               	decfsz	??_main,f
   682  04FE  2CFD               	goto	u2957
   683  04FF  0BE8               	decfsz	??_main+1,f
   684  0500  2CFD               	goto	u2957
   685  0501  0BE9               	decfsz	??_main+2,f
   686  0502  2CFD               	goto	u2957
   687  0503  2D04               	nop2
   688                           
   689                           ;main.c: 67:     distanceBack();
   690  0504  158A  26E6  118A   	fcall	_distanceBack
   691                           
   692                           ;main.c: 68:     RA4 = 1;
   693  0507  1283               	bcf	3,5	;RP0=0, select bank0
   694  0508  1303               	bcf	3,6	;RP1=0, select bank0
   695  0509  1605               	bsf	5,4	;volatile
   696                           
   697                           ;main.c: 69:     _delay((unsigned long)((200)*(4000000/4000.0)));
   698  050A  3002               	movlw	2
   699  050B  1283               	bcf	3,5	;RP0=0, select bank0
   700  050C  1303               	bcf	3,6	;RP1=0, select bank0
   701  050D  00E9               	movwf	??_main+2
   702  050E  3004               	movlw	4
   703  050F  00E8               	movwf	??_main+1
   704  0510  30B9               	movlw	185
   705  0511  00E7               	movwf	??_main
   706  0512                     u2967:	
   707  0512  0BE7               	decfsz	??_main,f
   708  0513  2D12               	goto	u2967
   709  0514  0BE8               	decfsz	??_main+1,f
   710  0515  2D12               	goto	u2967
   711  0516  0BE9               	decfsz	??_main+2,f
   712  0517  2D12               	goto	u2967
   713  0518  2D19               	nop2
   714                           
   715                           ;main.c: 70:     RA4 = 0;
   716  0519  1283               	bcf	3,5	;RP0=0, select bank0
   717  051A  1303               	bcf	3,6	;RP1=0, select bank0
   718  051B  1205               	bcf	5,4	;volatile
   719                           
   720                           ;main.c: 71:     changeMode('1');
   721  051C  3031               	movlw	49
   722  051D  118A  27F5  118A   	fcall	_changeMode
   723  0520                     l2281:	
   724                           ;main.c: 72:     while(distanceFront() < 20);
   725                           
   726  0520  158A  27B6  118A   	fcall	_distanceFront
   727  0523  1283               	bcf	3,5	;RP0=0, select bank0
   728  0524  1303               	bcf	3,6	;RP1=0, select bank0
   729  0525  0859               	movf	?_distanceFront+3,w
   730  0526  00DE               	movwf	___flge@ff1+3
   731  0527  0858               	movf	?_distanceFront+2,w
   732  0528  00DD               	movwf	___flge@ff1+2
   733  0529  0857               	movf	?_distanceFront+1,w
   734  052A  00DC               	movwf	___flge@ff1+1
   735  052B  0856               	movf	?_distanceFront,w
   736  052C  00DB               	movwf	___flge@ff1
   737  052D  3041               	movlw	65
   738  052E  00E2               	movwf	___flge@ff2+3
   739  052F  30A0               	movlw	160
   740  0530  00E1               	movwf	___flge@ff2+2
   741  0531  3000               	movlw	0
   742  0532  00E0               	movwf	___flge@ff2+1
   743  0533  3000               	movlw	0
   744  0534  00DF               	movwf	___flge@ff2
   745  0535  118A  2633  118A   	fcall	___flge
   746  0538  1C03               	btfss	3,0
   747  0539  2D20               	goto	l2281
   748                           
   749                           ;main.c: 73:     changeMode('0');
   750  053A  3030               	movlw	48
   751  053B  118A  27F5  118A   	fcall	_changeMode
   752                           
   753                           ;main.c: 74:     RA4 = 1;
   754  053E  1283               	bcf	3,5	;RP0=0, select bank0
   755  053F  1303               	bcf	3,6	;RP1=0, select bank0
   756  0540  1605               	bsf	5,4	;volatile
   757                           
   758                           ;main.c: 75:     _delay((unsigned long)((500)*(4000000/4000.0)));
   759  0541  3003               	movlw	3
   760  0542  1283               	bcf	3,5	;RP0=0, select bank0
   761  0543  1303               	bcf	3,6	;RP1=0, select bank0
   762  0544  00E9               	movwf	??_main+2
   763  0545  308A               	movlw	138
   764  0546  00E8               	movwf	??_main+1
   765  0547  3055               	movlw	85
   766  0548  00E7               	movwf	??_main
   767  0549                     u2977:	
   768  0549  0BE7               	decfsz	??_main,f
   769  054A  2D49               	goto	u2977
   770  054B  0BE8               	decfsz	??_main+1,f
   771  054C  2D49               	goto	u2977
   772  054D  0BE9               	decfsz	??_main+2,f
   773  054E  2D49               	goto	u2977
   774                           
   775                           ;main.c: 76:     RA4 = 0;
   776  054F  1283               	bcf	3,5	;RP0=0, select bank0
   777  0550  1303               	bcf	3,6	;RP1=0, select bank0
   778  0551  1205               	bcf	5,4	;volatile
   779                           
   780                           ;main.c: 77:     changeMode('5');
   781  0552  3035               	movlw	53
   782  0553  118A  27F5  118A   	fcall	_changeMode
   783                           
   784                           ;main.c: 78:     _delay((unsigned long)((1000)*(4000000/4000.0)));
   785  0556  3006               	movlw	6
   786  0557  1283               	bcf	3,5	;RP0=0, select bank0
   787  0558  1303               	bcf	3,6	;RP1=0, select bank0
   788  0559  00E9               	movwf	??_main+2
   789  055A  3013               	movlw	19
   790  055B  00E8               	movwf	??_main+1
   791  055C  30AD               	movlw	173
   792  055D  00E7               	movwf	??_main
   793  055E                     u2987:	
   794  055E  0BE7               	decfsz	??_main,f
   795  055F  2D5E               	goto	u2987
   796  0560  0BE8               	decfsz	??_main+1,f
   797  0561  2D5E               	goto	u2987
   798  0562  0BE9               	decfsz	??_main+2,f
   799  0563  2D5E               	goto	u2987
   800                           
   801                           ;main.c: 79:     changeMode('2');
   802  0564  3032               	movlw	50
   803  0565  118A  27F5  118A   	fcall	_changeMode
   804                           
   805                           ;main.c: 80:     _delay((unsigned long)((2500)*(4000000/4000.0)));
   806  0568  300D               	movlw	13
   807  0569  1283               	bcf	3,5	;RP0=0, select bank0
   808  056A  1303               	bcf	3,6	;RP1=0, select bank0
   809  056B  00E9               	movwf	??_main+2
   810  056C  30AF               	movlw	175
   811  056D  00E8               	movwf	??_main+1
   812  056E  30B5               	movlw	181
   813  056F  00E7               	movwf	??_main
   814  0570                     u2997:	
   815  0570  0BE7               	decfsz	??_main,f
   816  0571  2D70               	goto	u2997
   817  0572  0BE8               	decfsz	??_main+1,f
   818  0573  2D70               	goto	u2997
   819  0574  0BE9               	decfsz	??_main+2,f
   820  0575  2D70               	goto	u2997
   821  0576  2D77               	nop2
   822                           
   823                           ;main.c: 81:     changeMode('4');
   824  0577  3034               	movlw	52
   825  0578  118A  27F5  118A   	fcall	_changeMode
   826                           
   827                           ;main.c: 92:     _delay((unsigned long)((10000)*(4000000/4000.0)));
   828  057B  3033               	movlw	51
   829  057C  1283               	bcf	3,5	;RP0=0, select bank0
   830  057D  1303               	bcf	3,6	;RP1=0, select bank0
   831  057E  00E9               	movwf	??_main+2
   832  057F  30BB               	movlw	187
   833  0580  00E8               	movwf	??_main+1
   834  0581  30DF               	movlw	223
   835  0582  00E7               	movwf	??_main
   836  0583                     u3007:	
   837  0583  0BE7               	decfsz	??_main,f
   838  0584  2D83               	goto	u3007
   839  0585  0BE8               	decfsz	??_main+1,f
   840  0586  2D83               	goto	u3007
   841  0587  0BE9               	decfsz	??_main+2,f
   842  0588  2D83               	goto	u3007
   843  0589                     l2299:	
   844                           
   845                           ;main.c: 94:         changeMode('0');
   846  0589  3030               	movlw	48
   847  058A  118A  27F5  118A   	fcall	_changeMode
   848  058D  2D89               	goto	l2299
   849  058E                     __end_of_main:	
   850                           
   851                           	psect	text1
   852  0FB6                     __ptext1:	
   853 ;; *************** function _distanceFront *****************
   854 ;; Defined at:
   855 ;;		line 163 in file "main.c"
   856 ;; Parameters:    Size  Location     Type
   857 ;;		None
   858 ;; Auto vars:     Size  Location     Type
   859 ;;  i               2   40[BANK1 ] int 
   860 ;;  arr            40    0[BANK1 ] float [10]
   861 ;; Return value:  Size  Location     Type
   862 ;;                  4   54[BANK0 ] float 
   863 ;; Registers used:
   864 ;;		wreg, fsr0l, fsr0h, status,2, status,0, btemp+1, pclath, cstack
   865 ;; Tracked objects:
   866 ;;		On entry : 0/0
   867 ;;		On exit  : 0/0
   868 ;;		Unchanged: 0/0
   869 ;; Data sizes:     COMMON   BANK0   BANK1   BANK3   BANK2
   870 ;;      Params:         0       4       0       0       0
   871 ;;      Locals:         0       0      42       0       0
   872 ;;      Temps:          0       1       0       0       0
   873 ;;      Totals:         0       5      42       0       0
   874 ;;Total ram usage:       47 bytes
   875 ;; Hardware stack levels used:    1
   876 ;; Hardware stack levels required when called:    7
   877 ;; This function calls:
   878 ;;		_average
   879 ;;		_ultrasonicFront
   880 ;; This function is called by:
   881 ;;		_main
   882 ;; This function uses a non-reentrant model
   883 ;;
   884                           
   885                           
   886                           ;psect for function _distanceFront
   887  0FB6                     _distanceFront:	
   888                           
   889                           ;main.c: 164:     float arr[10];;main.c: 165:     for(int i = 0; i < 10; i++){
   890                           
   891                           ;incstack = 0
   892                           ; Regs used in _distanceFront: [wreg-fsr0h+status,2+status,0+btemp+1+pclath+cstack]
   893  0FB6  1683               	bsf	3,5	;RP0=1, select bank1
   894  0FB7  1303               	bcf	3,6	;RP1=0, select bank1
   895  0FB8  01C8               	clrf	distanceFront@i^(0+128)
   896  0FB9  01C9               	clrf	(distanceFront@i+1)^(0+128)
   897  0FBA                     l2205:	
   898                           
   899                           ;main.c: 166:         arr[i] = ultrasonicFront();
   900  0FBA  158A  276E  158A   	fcall	_ultrasonicFront
   901  0FBD  1683               	bsf	3,5	;RP0=1, select bank1
   902  0FBE  1303               	bcf	3,6	;RP1=0, select bank1
   903  0FBF  0848               	movf	distanceFront@i^(0+128),w
   904  0FC0  1283               	bcf	3,5	;RP0=0, select bank0
   905  0FC1  1303               	bcf	3,6	;RP1=0, select bank0
   906  0FC2  00DA               	movwf	??_distanceFront
   907  0FC3  3001               	movlw	1
   908  0FC4                     u2885:	
   909  0FC4  1003               	clrc
   910  0FC5  0DDA               	rlf	??_distanceFront,f
   911  0FC6  3EFF               	addlw	-1
   912  0FC7  1D03               	skipz
   913  0FC8  2FC4               	goto	u2885
   914  0FC9  1003               	clrc
   915  0FCA  0D5A               	rlf	??_distanceFront,w
   916  0FCB  3EA0               	addlw	(low (distanceFront@arr| 0))& (0+255)
   917  0FCC  0084               	movwf	4
   918  0FCD  084C               	movf	?_ultrasonicFront,w
   919  0FCE  1383               	bcf	3,7	;select IRP bank1
   920  0FCF  0080               	movwf	0
   921  0FD0  0A84               	incf	4,f
   922  0FD1  084D               	movf	?_ultrasonicFront+1,w
   923  0FD2  0080               	movwf	0
   924  0FD3  0A84               	incf	4,f
   925  0FD4  084E               	movf	?_ultrasonicFront+2,w
   926  0FD5  0080               	movwf	0
   927  0FD6  0A84               	incf	4,f
   928  0FD7  084F               	movf	?_ultrasonicFront+3,w
   929  0FD8  0080               	movwf	0
   930                           
   931                           ;main.c: 167:     }
   932  0FD9  3001               	movlw	1
   933  0FDA  1683               	bsf	3,5	;RP0=1, select bank1
   934  0FDB  1303               	bcf	3,6	;RP1=0, select bank1
   935  0FDC  07C8               	addwf	distanceFront@i^(0+128),f
   936  0FDD  1803               	skipnc
   937  0FDE  0AC9               	incf	(distanceFront@i+1)^(0+128),f
   938  0FDF  3000               	movlw	0
   939  0FE0  07C9               	addwf	(distanceFront@i+1)^(0+128),f
   940  0FE1  0849               	movf	(distanceFront@i+1)^(0+128),w
   941  0FE2  3A80               	xorlw	128
   942  0FE3  00FF               	movwf	127
   943  0FE4  3080               	movlw	128
   944  0FE5  027F               	subwf	127,w
   945  0FE6  1D03               	skipz
   946  0FE7  2FEA               	goto	u2895
   947  0FE8  300A               	movlw	10
   948  0FE9  0248               	subwf	distanceFront@i^(0+128),w
   949  0FEA                     u2895:	
   950  0FEA  1C03               	skipc
   951  0FEB  2FBA               	goto	l2205
   952                           
   953                           ;main.c: 168:     return average(arr, 10);
   954  0FEC  300A               	movlw	10
   955  0FED  1283               	bcf	3,5	;RP0=0, select bank0
   956  0FEE  1303               	bcf	3,6	;RP1=0, select bank0
   957  0FEF  00C8               	movwf	average@l
   958  0FF0  3000               	movlw	0
   959  0FF1  00C9               	movwf	average@l+1
   960  0FF2  30A0               	movlw	(low (distanceFront@arr| 0))& (0+255)
   961  0FF3  118A  2757         	fcall	_average
   962  0FF5  1283               	bcf	3,5	;RP0=0, select bank0
   963  0FF6  1303               	bcf	3,6	;RP1=0, select bank0
   964  0FF7  084B               	movf	?_average+3,w
   965  0FF8  00D9               	movwf	?_distanceFront+3
   966  0FF9  084A               	movf	?_average+2,w
   967  0FFA  00D8               	movwf	?_distanceFront+2
   968  0FFB  0849               	movf	?_average+1,w
   969  0FFC  00D7               	movwf	?_distanceFront+1
   970  0FFD  0848               	movf	?_average,w
   971  0FFE  00D6               	movwf	?_distanceFront
   972  0FFF  0008               	return
   973  1000                     __end_of_distanceFront:	
   974                           
   975                           	psect	text2
   976  0F6E                     __ptext2:	
   977 ;; *************** function _ultrasonicFront *****************
   978 ;; Defined at:
   979 ;;		line 118 in file "main.c"
   980 ;; Parameters:    Size  Location     Type
   981 ;;		None
   982 ;; Auto vars:     Size  Location     Type
   983 ;;  distance        4   50[BANK0 ] float 
   984 ;; Return value:  Size  Location     Type
   985 ;;                  4   44[BANK0 ] float 
   986 ;; Registers used:
   987 ;;		wreg, status,2, status,0, btemp+1, pclath, cstack
   988 ;; Tracked objects:
   989 ;;		On entry : 0/0
   990 ;;		On exit  : 0/0
   991 ;;		Unchanged: 0/0
   992 ;; Data sizes:     COMMON   BANK0   BANK1   BANK3   BANK2
   993 ;;      Params:         0       4       0       0       0
   994 ;;      Locals:         0       4       0       0       0
   995 ;;      Temps:          0       2       0       0       0
   996 ;;      Totals:         0      10       0       0       0
   997 ;;Total ram usage:       10 bytes
   998 ;; Hardware stack levels used:    1
   999 ;; Hardware stack levels required when called:    6
  1000 ;; This function calls:
  1001 ;;		___xxtofl
  1002 ;;		_calculateDistance
  1003 ;; This function is called by:
  1004 ;;		_distanceFront
  1005 ;; This function uses a non-reentrant model
  1006 ;;
  1007                           
  1008                           
  1009                           ;psect for function _ultrasonicFront
  1010  0F6E                     _ultrasonicFront:	
  1011                           
  1012                           ;main.c: 119:     TMR1H = 0;
  1013                           
  1014                           ;incstack = 0
  1015                           ; Regs used in _ultrasonicFront: [wreg+status,2+status,0+btemp+1+pclath+cstack]
  1016  0F6E  1283               	bcf	3,5	;RP0=0, select bank0
  1017  0F6F  1303               	bcf	3,6	;RP1=0, select bank0
  1018  0F70  018F               	clrf	15	;volatile
  1019                           
  1020                           ;main.c: 120:     TMR1L = 0;
  1021  0F71  018E               	clrf	14	;volatile
  1022                           
  1023                           ;main.c: 121:     RB1 = 1;
  1024  0F72  1486               	bsf	6,1	;volatile
  1025                           
  1026                           ;main.c: 122:     _delay((unsigned long)((10)*(4000000/4000000.0)));
  1027  0F73  3002               	movlw	2
  1028  0F74  1283               	bcf	3,5	;RP0=0, select bank0
  1029  0F75  1303               	bcf	3,6	;RP1=0, select bank0
  1030  0F76  00D0               	movwf	??_ultrasonicFront
  1031  0F77                     u3017:	
  1032  0F77  0BD0               	decfsz	??_ultrasonicFront,f
  1033  0F78  2F77               	goto	u3017
  1034  0F79  0000               	nop
  1035                           
  1036                           ;main.c: 123:     RB1 = 0;
  1037  0F7A  1283               	bcf	3,5	;RP0=0, select bank0
  1038  0F7B  1303               	bcf	3,6	;RP1=0, select bank0
  1039  0F7C  1086               	bcf	6,1	;volatile
  1040  0F7D                     l137:	
  1041                           ;main.c: 124:     while(!RB3);
  1042                           
  1043  0F7D  1D86               	btfss	6,3	;volatile
  1044  0F7E  2F7D               	goto	l137
  1045                           
  1046                           ;main.c: 125:     T1CONbits.TMR1ON = 1;
  1047  0F7F  1410               	bsf	16,0	;volatile
  1048  0F80                     l140:	
  1049                           ;main.c: 126:     while(RB3);
  1050                           
  1051  0F80  1986               	btfsc	6,3	;volatile
  1052  0F81  2F80               	goto	l140
  1053                           
  1054                           ;main.c: 127:     T1CONbits.TMR1ON = 0;
  1055  0F82  1010               	bcf	16,0	;volatile
  1056                           
  1057                           ;main.c: 129:     float distance = (TMR1L | (TMR1H<<8));
  1058  0F83  080F               	movf	15,w	;volatile
  1059  0F84  00D0               	movwf	??_ultrasonicFront
  1060  0F85  01D1               	clrf	??_ultrasonicFront+1
  1061  0F86  0850               	movf	??_ultrasonicFront,w
  1062  0F87  00D1               	movwf	??_ultrasonicFront+1
  1063  0F88  01D0               	clrf	??_ultrasonicFront
  1064  0F89  0850               	movf	??_ultrasonicFront,w
  1065  0F8A  040E               	iorwf	14,w	;volatile
  1066  0F8B  00A0               	movwf	___xxtofl@val
  1067  0F8C  0851               	movf	??_ultrasonicFront+1,w
  1068  0F8D  00A1               	movwf	___xxtofl@val+1
  1069  0F8E  01A2               	clrf	___xxtofl@val+2
  1070  0F8F  1BA1               	btfsc	___xxtofl@val+1,7
  1071  0F90  03A2               	decf	___xxtofl@val+2,f
  1072  0F91  0822               	movf	___xxtofl@val+2,w
  1073  0F92  00A3               	movwf	___xxtofl@val+3
  1074  0F93  3001               	movlw	1
  1075  0F94  118A  258E  158A   	fcall	___xxtofl
  1076  0F97  1283               	bcf	3,5	;RP0=0, select bank0
  1077  0F98  1303               	bcf	3,6	;RP1=0, select bank0
  1078  0F99  0823               	movf	?___xxtofl+3,w
  1079  0F9A  00D5               	movwf	ultrasonicFront@distance+3
  1080  0F9B  0822               	movf	?___xxtofl+2,w
  1081  0F9C  00D4               	movwf	ultrasonicFront@distance+2
  1082  0F9D  0821               	movf	?___xxtofl+1,w
  1083  0F9E  00D3               	movwf	ultrasonicFront@distance+1
  1084  0F9F  0820               	movf	?___xxtofl,w
  1085  0FA0  00D2               	movwf	ultrasonicFront@distance
  1086                           
  1087                           ;main.c: 130:     return calculateDistance(distance);
  1088  0FA1  0855               	movf	ultrasonicFront@distance+3,w
  1089  0FA2  00CB               	movwf	calculateDistance@d+3
  1090  0FA3  0854               	movf	ultrasonicFront@distance+2,w
  1091  0FA4  00CA               	movwf	calculateDistance@d+2
  1092  0FA5  0853               	movf	ultrasonicFront@distance+1,w
  1093  0FA6  00C9               	movwf	calculateDistance@d+1
  1094  0FA7  0852               	movf	ultrasonicFront@distance,w
  1095  0FA8  00C8               	movwf	calculateDistance@d
  1096  0FA9  158A  26AA         	fcall	_calculateDistance
  1097  0FAB  1283               	bcf	3,5	;RP0=0, select bank0
  1098  0FAC  1303               	bcf	3,6	;RP1=0, select bank0
  1099  0FAD  084B               	movf	?_calculateDistance+3,w
  1100  0FAE  00CF               	movwf	?_ultrasonicFront+3
  1101  0FAF  084A               	movf	?_calculateDistance+2,w
  1102  0FB0  00CE               	movwf	?_ultrasonicFront+2
  1103  0FB1  0849               	movf	?_calculateDistance+1,w
  1104  0FB2  00CD               	movwf	?_ultrasonicFront+1
  1105  0FB3  0848               	movf	?_calculateDistance,w
  1106  0FB4  00CC               	movwf	?_ultrasonicFront
  1107  0FB5  0008               	return
  1108  0FB6                     __end_of_ultrasonicFront:	
  1109                           
  1110                           	psect	text3
  1111  0EE6                     __ptext3:	
  1112 ;; *************** function _distanceBack *****************
  1113 ;; Defined at:
  1114 ;;		line 155 in file "main.c"
  1115 ;; Parameters:    Size  Location     Type
  1116 ;;		None
  1117 ;; Auto vars:     Size  Location     Type
  1118 ;;  i               2   40[BANK1 ] int 
  1119 ;;  arr            40    0[BANK1 ] float [10]
  1120 ;; Return value:  Size  Location     Type
  1121 ;;                  4   52[None  ] float 
  1122 ;; Registers used:
  1123 ;;		wreg, fsr0l, fsr0h, status,2, status,0, btemp+1, pclath, cstack
  1124 ;; Tracked objects:
  1125 ;;		On entry : 0/0
  1126 ;;		On exit  : 0/0
  1127 ;;		Unchanged: 0/0
  1128 ;; Data sizes:     COMMON   BANK0   BANK1   BANK3   BANK2
  1129 ;;      Params:         0       0       0       0       0
  1130 ;;      Locals:         0       0      42       0       0
  1131 ;;      Temps:          0       1       0       0       0
  1132 ;;      Totals:         0       1      42       0       0
  1133 ;;Total ram usage:       43 bytes
  1134 ;; Hardware stack levels used:    1
  1135 ;; Hardware stack levels required when called:    7
  1136 ;; This function calls:
  1137 ;;		_average
  1138 ;;		_ultrasonicBack
  1139 ;; This function is called by:
  1140 ;;		_main
  1141 ;; This function uses a non-reentrant model
  1142 ;;
  1143                           
  1144                           
  1145                           ;psect for function _distanceBack
  1146  0EE6                     _distanceBack:	
  1147                           
  1148                           ;main.c: 156:     float arr[10];;main.c: 157:     for(int i = 0; i < 10; i++){
  1149                           
  1150                           ;incstack = 0
  1151                           ; Regs used in _distanceBack: [wreg-fsr0h+status,2+status,0+btemp+1+pclath+cstack]
  1152  0EE6  1683               	bsf	3,5	;RP0=1, select bank1
  1153  0EE7  1303               	bcf	3,6	;RP1=0, select bank1
  1154  0EE8  01C8               	clrf	distanceBack@i^(0+128)
  1155  0EE9  01C9               	clrf	(distanceBack@i+1)^(0+128)
  1156  0EEA                     l2221:	
  1157                           
  1158                           ;main.c: 158:         arr[i] = ultrasonicBack();
  1159  0EEA  158A  2726  158A   	fcall	_ultrasonicBack
  1160  0EED  1683               	bsf	3,5	;RP0=1, select bank1
  1161  0EEE  1303               	bcf	3,6	;RP1=0, select bank1
  1162  0EEF  0848               	movf	distanceBack@i^(0+128),w
  1163  0EF0  1283               	bcf	3,5	;RP0=0, select bank0
  1164  0EF1  1303               	bcf	3,6	;RP1=0, select bank0
  1165  0EF2  00D6               	movwf	??_distanceBack
  1166  0EF3  3001               	movlw	1
  1167  0EF4                     u2905:	
  1168  0EF4  1003               	clrc
  1169  0EF5  0DD6               	rlf	??_distanceBack,f
  1170  0EF6  3EFF               	addlw	-1
  1171  0EF7  1D03               	skipz
  1172  0EF8  2EF4               	goto	u2905
  1173  0EF9  1003               	clrc
  1174  0EFA  0D56               	rlf	??_distanceBack,w
  1175  0EFB  3EA0               	addlw	(low (distanceBack@arr| 0))& (0+255)
  1176  0EFC  0084               	movwf	4
  1177  0EFD  084C               	movf	?_ultrasonicBack,w
  1178  0EFE  1383               	bcf	3,7	;select IRP bank1
  1179  0EFF  0080               	movwf	0
  1180  0F00  0A84               	incf	4,f
  1181  0F01  084D               	movf	?_ultrasonicBack+1,w
  1182  0F02  0080               	movwf	0
  1183  0F03  0A84               	incf	4,f
  1184  0F04  084E               	movf	?_ultrasonicBack+2,w
  1185  0F05  0080               	movwf	0
  1186  0F06  0A84               	incf	4,f
  1187  0F07  084F               	movf	?_ultrasonicBack+3,w
  1188  0F08  0080               	movwf	0
  1189                           
  1190                           ;main.c: 159:     }
  1191  0F09  3001               	movlw	1
  1192  0F0A  1683               	bsf	3,5	;RP0=1, select bank1
  1193  0F0B  1303               	bcf	3,6	;RP1=0, select bank1
  1194  0F0C  07C8               	addwf	distanceBack@i^(0+128),f
  1195  0F0D  1803               	skipnc
  1196  0F0E  0AC9               	incf	(distanceBack@i+1)^(0+128),f
  1197  0F0F  3000               	movlw	0
  1198  0F10  07C9               	addwf	(distanceBack@i+1)^(0+128),f
  1199  0F11  0849               	movf	(distanceBack@i+1)^(0+128),w
  1200  0F12  3A80               	xorlw	128
  1201  0F13  00FF               	movwf	127
  1202  0F14  3080               	movlw	128
  1203  0F15  027F               	subwf	127,w
  1204  0F16  1D03               	skipz
  1205  0F17  2F1A               	goto	u2915
  1206  0F18  300A               	movlw	10
  1207  0F19  0248               	subwf	distanceBack@i^(0+128),w
  1208  0F1A                     u2915:	
  1209  0F1A  1C03               	skipc
  1210  0F1B  2EEA               	goto	l2221
  1211                           
  1212                           ;main.c: 160:     return average(arr, 10);;	Return value of _distanceBack is never used
  1213  0F1C  300A               	movlw	10
  1214  0F1D  1283               	bcf	3,5	;RP0=0, select bank0
  1215  0F1E  1303               	bcf	3,6	;RP1=0, select bank0
  1216  0F1F  00C8               	movwf	average@l
  1217  0F20  3000               	movlw	0
  1218  0F21  00C9               	movwf	average@l+1
  1219  0F22  30A0               	movlw	(low (distanceBack@arr| 0))& (0+255)
  1220  0F23  118A  2757         	fcall	_average
  1221  0F25  0008               	return
  1222  0F26                     __end_of_distanceBack:	
  1223                           
  1224                           	psect	text4
  1225  0F26                     __ptext4:	
  1226 ;; *************** function _ultrasonicBack *****************
  1227 ;; Defined at:
  1228 ;;		line 103 in file "main.c"
  1229 ;; Parameters:    Size  Location     Type
  1230 ;;		None
  1231 ;; Auto vars:     Size  Location     Type
  1232 ;;  distance        4   50[BANK0 ] float 
  1233 ;; Return value:  Size  Location     Type
  1234 ;;                  4   44[BANK0 ] float 
  1235 ;; Registers used:
  1236 ;;		wreg, status,2, status,0, btemp+1, pclath, cstack
  1237 ;; Tracked objects:
  1238 ;;		On entry : 0/0
  1239 ;;		On exit  : 0/0
  1240 ;;		Unchanged: 0/0
  1241 ;; Data sizes:     COMMON   BANK0   BANK1   BANK3   BANK2
  1242 ;;      Params:         0       4       0       0       0
  1243 ;;      Locals:         0       4       0       0       0
  1244 ;;      Temps:          0       2       0       0       0
  1245 ;;      Totals:         0      10       0       0       0
  1246 ;;Total ram usage:       10 bytes
  1247 ;; Hardware stack levels used:    1
  1248 ;; Hardware stack levels required when called:    6
  1249 ;; This function calls:
  1250 ;;		___xxtofl
  1251 ;;		_calculateDistance
  1252 ;; This function is called by:
  1253 ;;		_distanceBack
  1254 ;; This function uses a non-reentrant model
  1255 ;;
  1256                           
  1257                           
  1258                           ;psect for function _ultrasonicBack
  1259  0F26                     _ultrasonicBack:	
  1260                           
  1261                           ;main.c: 104:     TMR1H = 0;
  1262                           
  1263                           ;incstack = 0
  1264                           ; Regs used in _ultrasonicBack: [wreg+status,2+status,0+btemp+1+pclath+cstack]
  1265  0F26  1283               	bcf	3,5	;RP0=0, select bank0
  1266  0F27  1303               	bcf	3,6	;RP1=0, select bank0
  1267  0F28  018F               	clrf	15	;volatile
  1268                           
  1269                           ;main.c: 105:     TMR1L = 0;
  1270  0F29  018E               	clrf	14	;volatile
  1271                           
  1272                           ;main.c: 106:     RA1 = 1;
  1273  0F2A  1485               	bsf	5,1	;volatile
  1274                           
  1275                           ;main.c: 107:     _delay((unsigned long)((10)*(4000000/4000000.0)));
  1276  0F2B  3002               	movlw	2
  1277  0F2C  1283               	bcf	3,5	;RP0=0, select bank0
  1278  0F2D  1303               	bcf	3,6	;RP1=0, select bank0
  1279  0F2E  00D0               	movwf	??_ultrasonicBack
  1280  0F2F                     u3027:	
  1281  0F2F  0BD0               	decfsz	??_ultrasonicBack,f
  1282  0F30  2F2F               	goto	u3027
  1283  0F31  0000               	nop
  1284                           
  1285                           ;main.c: 108:     RA1 = 0;
  1286  0F32  1283               	bcf	3,5	;RP0=0, select bank0
  1287  0F33  1303               	bcf	3,6	;RP1=0, select bank0
  1288  0F34  1085               	bcf	5,1	;volatile
  1289  0F35                     l128:	
  1290                           ;main.c: 109:     while(!RA0);
  1291                           
  1292  0F35  1C05               	btfss	5,0	;volatile
  1293  0F36  2F35               	goto	l128
  1294                           
  1295                           ;main.c: 110:     T1CONbits.TMR1ON = 1;
  1296  0F37  1410               	bsf	16,0	;volatile
  1297  0F38                     l131:	
  1298                           ;main.c: 111:     while(RA0);
  1299                           
  1300  0F38  1805               	btfsc	5,0	;volatile
  1301  0F39  2F38               	goto	l131
  1302                           
  1303                           ;main.c: 112:     T1CONbits.TMR1ON = 0;
  1304  0F3A  1010               	bcf	16,0	;volatile
  1305                           
  1306                           ;main.c: 114:     float distance = (TMR1L | (TMR1H<<8));
  1307  0F3B  080F               	movf	15,w	;volatile
  1308  0F3C  00D0               	movwf	??_ultrasonicBack
  1309  0F3D  01D1               	clrf	??_ultrasonicBack+1
  1310  0F3E  0850               	movf	??_ultrasonicBack,w
  1311  0F3F  00D1               	movwf	??_ultrasonicBack+1
  1312  0F40  01D0               	clrf	??_ultrasonicBack
  1313  0F41  0850               	movf	??_ultrasonicBack,w
  1314  0F42  040E               	iorwf	14,w	;volatile
  1315  0F43  00A0               	movwf	___xxtofl@val
  1316  0F44  0851               	movf	??_ultrasonicBack+1,w
  1317  0F45  00A1               	movwf	___xxtofl@val+1
  1318  0F46  01A2               	clrf	___xxtofl@val+2
  1319  0F47  1BA1               	btfsc	___xxtofl@val+1,7
  1320  0F48  03A2               	decf	___xxtofl@val+2,f
  1321  0F49  0822               	movf	___xxtofl@val+2,w
  1322  0F4A  00A3               	movwf	___xxtofl@val+3
  1323  0F4B  3001               	movlw	1
  1324  0F4C  118A  258E  158A   	fcall	___xxtofl
  1325  0F4F  1283               	bcf	3,5	;RP0=0, select bank0
  1326  0F50  1303               	bcf	3,6	;RP1=0, select bank0
  1327  0F51  0823               	movf	?___xxtofl+3,w
  1328  0F52  00D5               	movwf	ultrasonicBack@distance+3
  1329  0F53  0822               	movf	?___xxtofl+2,w
  1330  0F54  00D4               	movwf	ultrasonicBack@distance+2
  1331  0F55  0821               	movf	?___xxtofl+1,w
  1332  0F56  00D3               	movwf	ultrasonicBack@distance+1
  1333  0F57  0820               	movf	?___xxtofl,w
  1334  0F58  00D2               	movwf	ultrasonicBack@distance
  1335                           
  1336                           ;main.c: 115:     return calculateDistance(distance);
  1337  0F59  0855               	movf	ultrasonicBack@distance+3,w
  1338  0F5A  00CB               	movwf	calculateDistance@d+3
  1339  0F5B  0854               	movf	ultrasonicBack@distance+2,w
  1340  0F5C  00CA               	movwf	calculateDistance@d+2
  1341  0F5D  0853               	movf	ultrasonicBack@distance+1,w
  1342  0F5E  00C9               	movwf	calculateDistance@d+1
  1343  0F5F  0852               	movf	ultrasonicBack@distance,w
  1344  0F60  00C8               	movwf	calculateDistance@d
  1345  0F61  158A  26AA         	fcall	_calculateDistance
  1346  0F63  1283               	bcf	3,5	;RP0=0, select bank0
  1347  0F64  1303               	bcf	3,6	;RP1=0, select bank0
  1348  0F65  084B               	movf	?_calculateDistance+3,w
  1349  0F66  00CF               	movwf	?_ultrasonicBack+3
  1350  0F67  084A               	movf	?_calculateDistance+2,w
  1351  0F68  00CE               	movwf	?_ultrasonicBack+2
  1352  0F69  0849               	movf	?_calculateDistance+1,w
  1353  0F6A  00CD               	movwf	?_ultrasonicBack+1
  1354  0F6B  0848               	movf	?_calculateDistance,w
  1355  0F6C  00CC               	movwf	?_ultrasonicBack
  1356  0F6D  0008               	return
  1357  0F6E                     __end_of_ultrasonicBack:	
  1358                           
  1359                           	psect	text5
  1360  0EAA                     __ptext5:	
  1361 ;; *************** function _calculateDistance *****************
  1362 ;; Defined at:
  1363 ;;		line 133 in file "main.c"
  1364 ;; Parameters:    Size  Location     Type
  1365 ;;  d               4   40[BANK0 ] float 
  1366 ;; Auto vars:     Size  Location     Type
  1367 ;;		None
  1368 ;; Return value:  Size  Location     Type
  1369 ;;                  4   40[BANK0 ] float 
  1370 ;; Registers used:
  1371 ;;		wreg, status,2, status,0, btemp+1, pclath, cstack
  1372 ;; Tracked objects:
  1373 ;;		On entry : 0/0
  1374 ;;		On exit  : 0/0
  1375 ;;		Unchanged: 0/0
  1376 ;; Data sizes:     COMMON   BANK0   BANK1   BANK3   BANK2
  1377 ;;      Params:         0       4       0       0       0
  1378 ;;      Locals:         0       0       0       0       0
  1379 ;;      Temps:          0       0       0       0       0
  1380 ;;      Totals:         0       4       0       0       0
  1381 ;;Total ram usage:        4 bytes
  1382 ;; Hardware stack levels used:    1
  1383 ;; Hardware stack levels required when called:    5
  1384 ;; This function calls:
  1385 ;;		___fladd
  1386 ;;		___fldiv
  1387 ;; This function is called by:
  1388 ;;		_ultrasonicBack
  1389 ;;		_ultrasonicFront
  1390 ;; This function uses a non-reentrant model
  1391 ;;
  1392                           
  1393                           
  1394                           ;psect for function _calculateDistance
  1395  0EAA                     _calculateDistance:	
  1396                           
  1397                           ;main.c: 134:     d = d / 58.82;
  1398                           
  1399                           ;incstack = 0
  1400                           ; Regs used in _calculateDistance: [wreg+status,2+status,0+btemp+1+pclath+cstack]
  1401  0EAA  3042               	movlw	66
  1402  0EAB  1283               	bcf	3,5	;RP0=0, select bank0
  1403  0EAC  1303               	bcf	3,6	;RP1=0, select bank0
  1404  0EAD  00B1               	movwf	___fldiv@a+3
  1405  0EAE  306B               	movlw	107
  1406  0EAF  00B0               	movwf	___fldiv@a+2
  1407  0EB0  3047               	movlw	71
  1408  0EB1  00AF               	movwf	___fldiv@a+1
  1409  0EB2  30AE               	movlw	174
  1410  0EB3  00AE               	movwf	___fldiv@a
  1411  0EB4  084B               	movf	calculateDistance@d+3,w
  1412  0EB5  00B5               	movwf	___fldiv@b+3
  1413  0EB6  084A               	movf	calculateDistance@d+2,w
  1414  0EB7  00B4               	movwf	___fldiv@b+2
  1415  0EB8  0849               	movf	calculateDistance@d+1,w
  1416  0EB9  00B3               	movwf	___fldiv@b+1
  1417  0EBA  0848               	movf	calculateDistance@d,w
  1418  0EBB  00B2               	movwf	___fldiv@b
  1419  0EBC  118A  2244  158A   	fcall	___fldiv
  1420  0EBF  1283               	bcf	3,5	;RP0=0, select bank0
  1421  0EC0  1303               	bcf	3,6	;RP1=0, select bank0
  1422  0EC1  0831               	movf	?___fldiv+3,w
  1423  0EC2  00CB               	movwf	calculateDistance@d+3
  1424  0EC3  0830               	movf	?___fldiv+2,w
  1425  0EC4  00CA               	movwf	calculateDistance@d+2
  1426  0EC5  082F               	movf	?___fldiv+1,w
  1427  0EC6  00C9               	movwf	calculateDistance@d+1
  1428  0EC7  082E               	movf	?___fldiv,w
  1429  0EC8  00C8               	movwf	calculateDistance@d
  1430                           
  1431                           ;main.c: 135:     d = d + 1;
  1432  0EC9  303F               	movlw	63
  1433  0ECA  00A3               	movwf	___fladd@b+3
  1434  0ECB  3080               	movlw	128
  1435  0ECC  00A2               	movwf	___fladd@b+2
  1436  0ECD  3000               	movlw	0
  1437  0ECE  00A1               	movwf	___fladd@b+1
  1438  0ECF  3000               	movlw	0
  1439  0ED0  00A0               	movwf	___fladd@b
  1440  0ED1  084B               	movf	calculateDistance@d+3,w
  1441  0ED2  00A7               	movwf	___fladd@a+3
  1442  0ED3  084A               	movf	calculateDistance@d+2,w
  1443  0ED4  00A6               	movwf	___fladd@a+2
  1444  0ED5  0849               	movf	calculateDistance@d+1,w
  1445  0ED6  00A5               	movwf	___fladd@a+1
  1446  0ED7  0848               	movf	calculateDistance@d,w
  1447  0ED8  00A4               	movwf	___fladd@a
  1448  0ED9  118A  2015         	fcall	___fladd
  1449  0EDB  1283               	bcf	3,5	;RP0=0, select bank0
  1450  0EDC  1303               	bcf	3,6	;RP1=0, select bank0
  1451  0EDD  0823               	movf	?___fladd+3,w
  1452  0EDE  00CB               	movwf	calculateDistance@d+3
  1453  0EDF  0822               	movf	?___fladd+2,w
  1454  0EE0  00CA               	movwf	calculateDistance@d+2
  1455  0EE1  0821               	movf	?___fladd+1,w
  1456  0EE2  00C9               	movwf	calculateDistance@d+1
  1457  0EE3  0820               	movf	?___fladd,w
  1458  0EE4  00C8               	movwf	calculateDistance@d
  1459                           
  1460                           ;main.c: 136:     return d;
  1461  0EE5  0008               	return
  1462  0EE6                     __end_of_calculateDistance:	
  1463                           
  1464                           	psect	text6
  1465  0757                     __ptext6:	
  1466 ;; *************** function _average *****************
  1467 ;; Defined at:
  1468 ;;		line 170 in file "main.c"
  1469 ;; Parameters:    Size  Location     Type
  1470 ;;  arr             1    wreg     PTR float 
  1471 ;;		 -> distanceFront@arr(40), distanceBack@arr(40), 
  1472 ;;  l               2   40[BANK0 ] short 
  1473 ;; Auto vars:     Size  Location     Type
  1474 ;;  arr             1   46[BANK0 ] PTR float 
  1475 ;;		 -> distanceFront@arr(40), distanceBack@arr(40), 
  1476 ;;  i               2   51[BANK0 ] int 
  1477 ;;  sum             4   47[BANK0 ] float 
  1478 ;; Return value:  Size  Location     Type
  1479 ;;                  4   40[BANK0 ] float 
  1480 ;; Registers used:
  1481 ;;		wreg, fsr0l, fsr0h, status,2, status,0, btemp+1, pclath, cstack
  1482 ;; Tracked objects:
  1483 ;;		On entry : 0/0
  1484 ;;		On exit  : 0/0
  1485 ;;		Unchanged: 0/0
  1486 ;; Data sizes:     COMMON   BANK0   BANK1   BANK3   BANK2
  1487 ;;      Params:         0       4       0       0       0
  1488 ;;      Locals:         0       7       0       0       0
  1489 ;;      Temps:          0       2       0       0       0
  1490 ;;      Totals:         0      13       0       0       0
  1491 ;;Total ram usage:       13 bytes
  1492 ;; Hardware stack levels used:    1
  1493 ;; Hardware stack levels required when called:    5
  1494 ;; This function calls:
  1495 ;;		___fladd
  1496 ;;		___fldiv
  1497 ;;		___xxtofl
  1498 ;; This function is called by:
  1499 ;;		_distanceBack
  1500 ;;		_distanceFront
  1501 ;; This function uses a non-reentrant model
  1502 ;;
  1503                           
  1504                           
  1505                           ;psect for function _average
  1506  0757                     _average:	
  1507                           
  1508                           ;incstack = 0
  1509                           ; Regs used in _average: [wreg-fsr0h+status,2+status,0+btemp+1+pclath+cstack]
  1510                           ;average@arr stored from wreg
  1511  0757  1283               	bcf	3,5	;RP0=0, select bank0
  1512  0758  1303               	bcf	3,6	;RP1=0, select bank0
  1513  0759  00CE               	movwf	average@arr
  1514                           
  1515                           ;main.c: 171:     float sum = 0;
  1516  075A  3000               	movlw	0
  1517  075B  00D2               	movwf	average@sum+3
  1518  075C  3000               	movlw	0
  1519  075D  00D1               	movwf	average@sum+2
  1520  075E  3000               	movlw	0
  1521  075F  00D0               	movwf	average@sum+1
  1522  0760  3000               	movlw	0
  1523  0761  00CF               	movwf	average@sum
  1524                           
  1525                           ;main.c: 172:     for(int i = 0; i < l; i++){
  1526  0762  01D3               	clrf	average@i
  1527  0763  01D4               	clrf	average@i+1
  1528  0764                     l2123:	
  1529  0764  0854               	movf	average@i+1,w
  1530  0765  3A80               	xorlw	128
  1531  0766  00CC               	movwf	??_average
  1532  0767  0849               	movf	average@l+1,w
  1533  0768  3A80               	xorlw	128
  1534  0769  024C               	subwf	??_average,w
  1535  076A  1D03               	skipz
  1536  076B  2F6E               	goto	u2695
  1537  076C  0848               	movf	average@l,w
  1538  076D  0253               	subwf	average@i,w
  1539  076E                     u2695:	
  1540  076E  1803               	btfsc	3,0
  1541  076F  2FA8               	goto	l2125
  1542                           
  1543                           ;main.c: 173:         sum = sum + arr[i];
  1544  0770  1283               	bcf	3,5	;RP0=0, select bank0
  1545  0771  1303               	bcf	3,6	;RP1=0, select bank0
  1546  0772  0852               	movf	average@sum+3,w
  1547  0773  00A3               	movwf	___fladd@b+3
  1548  0774  0851               	movf	average@sum+2,w
  1549  0775  00A2               	movwf	___fladd@b+2
  1550  0776  0850               	movf	average@sum+1,w
  1551  0777  00A1               	movwf	___fladd@b+1
  1552  0778  084F               	movf	average@sum,w
  1553  0779  00A0               	movwf	___fladd@b
  1554  077A  0853               	movf	average@i,w
  1555  077B  00CC               	movwf	??_average
  1556  077C  3001               	movlw	1
  1557  077D                     u2685:	
  1558  077D  1003               	clrc
  1559  077E  0DCC               	rlf	??_average,f
  1560  077F  3EFF               	addlw	-1
  1561  0780  1D03               	skipz
  1562  0781  2F7D               	goto	u2685
  1563  0782  1003               	clrc
  1564  0783  0D4C               	rlf	??_average,w
  1565  0784  074E               	addwf	average@arr,w
  1566  0785  00CD               	movwf	??_average+1
  1567  0786  084D               	movf	??_average+1,w
  1568  0787  0084               	movwf	4
  1569  0788  1383               	bcf	3,7	;select IRP bank0
  1570  0789  0800               	movf	0,w
  1571  078A  00A4               	movwf	___fladd@a
  1572  078B  0A84               	incf	4,f
  1573  078C  0800               	movf	0,w
  1574  078D  00A5               	movwf	___fladd@a+1
  1575  078E  0A84               	incf	4,f
  1576  078F  0800               	movf	0,w
  1577  0790  00A6               	movwf	___fladd@a+2
  1578  0791  0A84               	incf	4,f
  1579  0792  0800               	movf	0,w
  1580  0793  00A7               	movwf	___fladd@a+3
  1581  0794  118A  2015  118A   	fcall	___fladd
  1582  0797  1283               	bcf	3,5	;RP0=0, select bank0
  1583  0798  1303               	bcf	3,6	;RP1=0, select bank0
  1584  0799  0823               	movf	?___fladd+3,w
  1585  079A  00D2               	movwf	average@sum+3
  1586  079B  0822               	movf	?___fladd+2,w
  1587  079C  00D1               	movwf	average@sum+2
  1588  079D  0821               	movf	?___fladd+1,w
  1589  079E  00D0               	movwf	average@sum+1
  1590  079F  0820               	movf	?___fladd,w
  1591  07A0  00CF               	movwf	average@sum
  1592                           
  1593                           ;main.c: 174:     }
  1594  07A1  3001               	movlw	1
  1595  07A2  07D3               	addwf	average@i,f
  1596  07A3  1803               	skipnc
  1597  07A4  0AD4               	incf	average@i+1,f
  1598  07A5  3000               	movlw	0
  1599  07A6  07D4               	addwf	average@i+1,f
  1600  07A7  2F64               	goto	l2123
  1601  07A8                     l2125:	
  1602                           
  1603                           ;main.c: 175:     return sum / l;
  1604  07A8  1283               	bcf	3,5	;RP0=0, select bank0
  1605  07A9  1303               	bcf	3,6	;RP1=0, select bank0
  1606  07AA  0848               	movf	average@l,w
  1607  07AB  00A0               	movwf	___xxtofl@val
  1608  07AC  0849               	movf	average@l+1,w
  1609  07AD  00A1               	movwf	___xxtofl@val+1
  1610  07AE  3000               	movlw	0
  1611  07AF  1BA1               	btfsc	___xxtofl@val+1,7
  1612  07B0  30FF               	movlw	255
  1613  07B1  00A2               	movwf	___xxtofl@val+2
  1614  07B2  00A3               	movwf	___xxtofl@val+3
  1615  07B3  3001               	movlw	1
  1616  07B4  118A  258E  118A   	fcall	___xxtofl
  1617  07B7  1283               	bcf	3,5	;RP0=0, select bank0
  1618  07B8  1303               	bcf	3,6	;RP1=0, select bank0
  1619  07B9  0823               	movf	?___xxtofl+3,w
  1620  07BA  00B1               	movwf	___fldiv@a+3
  1621  07BB  0822               	movf	?___xxtofl+2,w
  1622  07BC  00B0               	movwf	___fldiv@a+2
  1623  07BD  0821               	movf	?___xxtofl+1,w
  1624  07BE  00AF               	movwf	___fldiv@a+1
  1625  07BF  0820               	movf	?___xxtofl,w
  1626  07C0  00AE               	movwf	___fldiv@a
  1627  07C1  0852               	movf	average@sum+3,w
  1628  07C2  00B5               	movwf	___fldiv@b+3
  1629  07C3  0851               	movf	average@sum+2,w
  1630  07C4  00B4               	movwf	___fldiv@b+2
  1631  07C5  0850               	movf	average@sum+1,w
  1632  07C6  00B3               	movwf	___fldiv@b+1
  1633  07C7  084F               	movf	average@sum,w
  1634  07C8  00B2               	movwf	___fldiv@b
  1635  07C9  118A  2244         	fcall	___fldiv
  1636  07CB  1283               	bcf	3,5	;RP0=0, select bank0
  1637  07CC  1303               	bcf	3,6	;RP1=0, select bank0
  1638  07CD  0831               	movf	?___fldiv+3,w
  1639  07CE  00CB               	movwf	?_average+3
  1640  07CF  0830               	movf	?___fldiv+2,w
  1641  07D0  00CA               	movwf	?_average+2
  1642  07D1  082F               	movf	?___fldiv+1,w
  1643  07D2  00C9               	movwf	?_average+1
  1644  07D3  082E               	movf	?___fldiv,w
  1645  07D4  00C8               	movwf	?_average
  1646  07D5  0008               	return
  1647  07D6                     __end_of_average:	
  1648                           
  1649                           	psect	text7
  1650  058E                     __ptext7:	
  1651 ;; *************** function ___xxtofl *****************
  1652 ;; Defined at:
  1653 ;;		line 10 in file "/Applications/microchip/xc8/v2.05/pic/sources/c90/common/xxtofl.c"
  1654 ;; Parameters:    Size  Location     Type
  1655 ;;  sign            1    wreg     unsigned char 
  1656 ;;  val             4    0[BANK0 ] long 
  1657 ;; Auto vars:     Size  Location     Type
  1658 ;;  sign            1    8[BANK0 ] unsigned char 
  1659 ;;  arg             4   10[BANK0 ] unsigned long 
  1660 ;;  exp             1    9[BANK0 ] unsigned char 
  1661 ;; Return value:  Size  Location     Type
  1662 ;;                  4    0[BANK0 ] unsigned char 
  1663 ;; Registers used:
  1664 ;;		wreg, status,2, status,0
  1665 ;; Tracked objects:
  1666 ;;		On entry : 0/0
  1667 ;;		On exit  : 0/0
  1668 ;;		Unchanged: 0/0
  1669 ;; Data sizes:     COMMON   BANK0   BANK1   BANK3   BANK2
  1670 ;;      Params:         0       4       0       0       0
  1671 ;;      Locals:         0       6       0       0       0
  1672 ;;      Temps:          0       4       0       0       0
  1673 ;;      Totals:         0      14       0       0       0
  1674 ;;Total ram usage:       14 bytes
  1675 ;; Hardware stack levels used:    1
  1676 ;; Hardware stack levels required when called:    4
  1677 ;; This function calls:
  1678 ;;		Nothing
  1679 ;; This function is called by:
  1680 ;;		_ultrasonicBack
  1681 ;;		_ultrasonicFront
  1682 ;;		_average
  1683 ;; This function uses a non-reentrant model
  1684 ;;
  1685                           
  1686                           
  1687                           ;psect for function ___xxtofl
  1688  058E                     ___xxtofl:	
  1689                           
  1690                           ;incstack = 0
  1691                           ; Regs used in ___xxtofl: [wreg+status,2+status,0]
  1692                           ;___xxtofl@sign stored from wreg
  1693  058E  1283               	bcf	3,5	;RP0=0, select bank0
  1694  058F  1303               	bcf	3,6	;RP1=0, select bank0
  1695  0590  00A8               	movwf	___xxtofl@sign
  1696  0591  0828               	movf	___xxtofl@sign,w
  1697  0592  1D03               	btfss	3,2
  1698  0593  1FA3               	btfss	___xxtofl@val+3,7
  1699  0594  2DA5               	goto	l1791
  1700  0595  0920               	comf	___xxtofl@val,w
  1701  0596  00AA               	movwf	___xxtofl@arg
  1702  0597  0921               	comf	___xxtofl@val+1,w
  1703  0598  00AB               	movwf	___xxtofl@arg+1
  1704  0599  0922               	comf	___xxtofl@val+2,w
  1705  059A  00AC               	movwf	___xxtofl@arg+2
  1706  059B  0923               	comf	___xxtofl@val+3,w
  1707  059C  00AD               	movwf	___xxtofl@arg+3
  1708  059D  0AAA               	incf	___xxtofl@arg,f
  1709  059E  1903               	skipnz
  1710  059F  0AAB               	incf	___xxtofl@arg+1,f
  1711  05A0  1903               	skipnz
  1712  05A1  0AAC               	incf	___xxtofl@arg+2,f
  1713  05A2  1903               	skipnz
  1714  05A3  0AAD               	incf	___xxtofl@arg+3,f
  1715  05A4  2DAD               	goto	l686
  1716  05A5                     l1791:	
  1717  05A5  0823               	movf	___xxtofl@val+3,w
  1718  05A6  00AD               	movwf	___xxtofl@arg+3
  1719  05A7  0822               	movf	___xxtofl@val+2,w
  1720  05A8  00AC               	movwf	___xxtofl@arg+2
  1721  05A9  0821               	movf	___xxtofl@val+1,w
  1722  05AA  00AB               	movwf	___xxtofl@arg+1
  1723  05AB  0820               	movf	___xxtofl@val,w
  1724  05AC  00AA               	movwf	___xxtofl@arg
  1725  05AD                     l686:	
  1726  05AD  0823               	movf	___xxtofl@val+3,w
  1727  05AE  0422               	iorwf	___xxtofl@val+2,w
  1728  05AF  0421               	iorwf	___xxtofl@val+1,w
  1729  05B0  0420               	iorwf	___xxtofl@val,w
  1730  05B1  1D03               	skipz
  1731  05B2  2DBC               	goto	l1797
  1732  05B3  3000               	movlw	0
  1733  05B4  00A3               	movwf	?___xxtofl+3
  1734  05B5  3000               	movlw	0
  1735  05B6  00A2               	movwf	?___xxtofl+2
  1736  05B7  3000               	movlw	0
  1737  05B8  00A1               	movwf	?___xxtofl+1
  1738  05B9  3000               	movlw	0
  1739  05BA  00A0               	movwf	?___xxtofl
  1740  05BB  0008               	return
  1741  05BC                     l1797:	
  1742  05BC  3096               	movlw	150
  1743  05BD  00A4               	movwf	??___xxtofl
  1744  05BE  0824               	movf	??___xxtofl,w
  1745  05BF  00A9               	movwf	___xxtofl@exp
  1746  05C0                     l1801:	
  1747  05C0  30FE               	movlw	254
  1748  05C1  052D               	andwf	___xxtofl@arg+3,w
  1749  05C2  1903               	btfsc	3,2
  1750  05C3  2DED               	goto	l692
  1751  05C4  3001               	movlw	1
  1752  05C5  00A4               	movwf	??___xxtofl
  1753  05C6  0824               	movf	??___xxtofl,w
  1754  05C7  07A9               	addwf	___xxtofl@exp,f
  1755  05C8  3001               	movlw	1
  1756  05C9                     u2125:	
  1757  05C9  1003               	clrc
  1758  05CA  0CAD               	rrf	___xxtofl@arg+3,f
  1759  05CB  0CAC               	rrf	___xxtofl@arg+2,f
  1760  05CC  0CAB               	rrf	___xxtofl@arg+1,f
  1761  05CD  0CAA               	rrf	___xxtofl@arg,f
  1762  05CE  3EFF               	addlw	-1
  1763  05CF  1D03               	skipz
  1764  05D0  2DC9               	goto	u2125
  1765  05D1  2DC0               	goto	l1801
  1766  05D2                     l1803:	
  1767  05D2  3001               	movlw	1
  1768  05D3  00A4               	movwf	??___xxtofl
  1769  05D4  0824               	movf	??___xxtofl,w
  1770  05D5  07A9               	addwf	___xxtofl@exp,f
  1771  05D6  3001               	movlw	1
  1772  05D7  07AA               	addwf	___xxtofl@arg,f
  1773  05D8  3000               	movlw	0
  1774  05D9  1803               	skipnc
  1775  05DA  3001               	movlw	1
  1776  05DB  07AB               	addwf	___xxtofl@arg+1,f
  1777  05DC  3000               	movlw	0
  1778  05DD  1803               	skipnc
  1779  05DE  3001               	movlw	1
  1780  05DF  07AC               	addwf	___xxtofl@arg+2,f
  1781  05E0  3000               	movlw	0
  1782  05E1  1803               	skipnc
  1783  05E2  3001               	movlw	1
  1784  05E3  07AD               	addwf	___xxtofl@arg+3,f
  1785  05E4  3001               	movlw	1
  1786  05E5                     u2145:	
  1787  05E5  1003               	clrc
  1788  05E6  0CAD               	rrf	___xxtofl@arg+3,f
  1789  05E7  0CAC               	rrf	___xxtofl@arg+2,f
  1790  05E8  0CAB               	rrf	___xxtofl@arg+1,f
  1791  05E9  0CAA               	rrf	___xxtofl@arg,f
  1792  05EA  3EFF               	addlw	-1
  1793  05EB  1D03               	skipz
  1794  05EC  2DE5               	goto	u2145
  1795  05ED                     l692:	
  1796  05ED  30FF               	movlw	255
  1797  05EE  052D               	andwf	___xxtofl@arg+3,w
  1798  05EF  1903               	btfsc	3,2
  1799  05F0  2E01               	goto	l1811
  1800  05F1  2DD2               	goto	l1803
  1801  05F2                     l1813:	
  1802  05F2  3002               	movlw	2
  1803  05F3  0229               	subwf	___xxtofl@exp,w
  1804  05F4  1C03               	btfss	3,0
  1805  05F5  2E03               	goto	l699
  1806  05F6  3001               	movlw	1
  1807  05F7  02A9               	subwf	___xxtofl@exp,f
  1808  05F8  3001               	movlw	1
  1809  05F9  00A4               	movwf	??___xxtofl
  1810  05FA                     u2165:	
  1811  05FA  1003               	clrc
  1812  05FB  0DAA               	rlf	___xxtofl@arg,f
  1813  05FC  0DAB               	rlf	___xxtofl@arg+1,f
  1814  05FD  0DAC               	rlf	___xxtofl@arg+2,f
  1815  05FE  0DAD               	rlf	___xxtofl@arg+3,f
  1816  05FF  0BA4               	decfsz	??___xxtofl,f
  1817  0600  2DFA               	goto	u2165
  1818  0601                     l1811:	
  1819  0601  1FAC               	btfss	___xxtofl@arg+2,7
  1820  0602  2DF2               	goto	l1813
  1821  0603                     l699:	
  1822  0603  1829               	btfsc	___xxtofl@exp,0
  1823  0604  2E0D               	goto	l700
  1824  0605  30FF               	movlw	255
  1825  0606  05AA               	andwf	___xxtofl@arg,f
  1826  0607  30FF               	movlw	255
  1827  0608  05AB               	andwf	___xxtofl@arg+1,f
  1828  0609  307F               	movlw	127
  1829  060A  05AC               	andwf	___xxtofl@arg+2,f
  1830  060B  30FF               	movlw	255
  1831  060C  05AD               	andwf	___xxtofl@arg+3,f
  1832  060D                     l700:	
  1833  060D  1003               	clrc
  1834  060E  0CA9               	rrf	___xxtofl@exp,f
  1835  060F  0829               	movf	___xxtofl@exp,w
  1836  0610  00A4               	movwf	??___xxtofl
  1837  0611  01A5               	clrf	??___xxtofl+1
  1838  0612  01A6               	clrf	??___xxtofl+2
  1839  0613  01A7               	clrf	??___xxtofl+3
  1840  0614  3018               	movlw	24
  1841  0615                     u2205:	
  1842  0615  1003               	clrc
  1843  0616  0DA4               	rlf	??___xxtofl,f
  1844  0617  0DA5               	rlf	??___xxtofl+1,f
  1845  0618  0DA6               	rlf	??___xxtofl+2,f
  1846  0619  0DA7               	rlf	??___xxtofl+3,f
  1847  061A  3EFF               	addlw	-1
  1848  061B  1D03               	skipz
  1849  061C  2E15               	goto	u2205
  1850  061D  0824               	movf	??___xxtofl,w
  1851  061E  04AA               	iorwf	___xxtofl@arg,f
  1852  061F  0825               	movf	??___xxtofl+1,w
  1853  0620  04AB               	iorwf	___xxtofl@arg+1,f
  1854  0621  0826               	movf	??___xxtofl+2,w
  1855  0622  04AC               	iorwf	___xxtofl@arg+2,f
  1856  0623  0827               	movf	??___xxtofl+3,w
  1857  0624  04AD               	iorwf	___xxtofl@arg+3,f
  1858  0625  0828               	movf	___xxtofl@sign,w
  1859  0626  1D03               	btfss	3,2
  1860  0627  1FA3               	btfss	___xxtofl@val+3,7
  1861  0628  2E2A               	goto	l1825
  1862  0629  17AD               	bsf	___xxtofl@arg+3,7
  1863  062A                     l1825:	
  1864  062A  082D               	movf	___xxtofl@arg+3,w
  1865  062B  00A3               	movwf	?___xxtofl+3
  1866  062C  082C               	movf	___xxtofl@arg+2,w
  1867  062D  00A2               	movwf	?___xxtofl+2
  1868  062E  082B               	movf	___xxtofl@arg+1,w
  1869  062F  00A1               	movwf	?___xxtofl+1
  1870  0630  082A               	movf	___xxtofl@arg,w
  1871  0631  00A0               	movwf	?___xxtofl
  1872  0632  0008               	return
  1873  0633                     __end_of___xxtofl:	
  1874                           
  1875                           	psect	text8
  1876  0244                     __ptext8:	
  1877 ;; *************** function ___fldiv *****************
  1878 ;; Defined at:
  1879 ;;		line 8 in file "/Applications/microchip/xc8/v2.05/pic/sources/c90/common/sprcdiv.c"
  1880 ;; Parameters:    Size  Location     Type
  1881 ;;  a               4   14[BANK0 ] unsigned char 
  1882 ;;  b               4   18[BANK0 ] unsigned char 
  1883 ;; Auto vars:     Size  Location     Type
  1884 ;;  grs             4   34[BANK0 ] unsigned long 
  1885 ;;  rem             4   27[BANK0 ] unsigned long 
  1886 ;;  new_exp         2   32[BANK0 ] int 
  1887 ;;  aexp            1   39[BANK0 ] unsigned char 
  1888 ;;  bexp            1   38[BANK0 ] unsigned char 
  1889 ;;  sign            1   31[BANK0 ] unsigned char 
  1890 ;; Return value:  Size  Location     Type
  1891 ;;                  4   14[BANK0 ] unsigned char 
  1892 ;; Registers used:
  1893 ;;		wreg, status,2, status,0, btemp+1
  1894 ;; Tracked objects:
  1895 ;;		On entry : 0/0
  1896 ;;		On exit  : 0/0
  1897 ;;		Unchanged: 0/0
  1898 ;; Data sizes:     COMMON   BANK0   BANK1   BANK3   BANK2
  1899 ;;      Params:         0       8       0       0       0
  1900 ;;      Locals:         0      13       0       0       0
  1901 ;;      Temps:          0       5       0       0       0
  1902 ;;      Totals:         0      26       0       0       0
  1903 ;;Total ram usage:       26 bytes
  1904 ;; Hardware stack levels used:    1
  1905 ;; Hardware stack levels required when called:    4
  1906 ;; This function calls:
  1907 ;;		Nothing
  1908 ;; This function is called by:
  1909 ;;		_calculateDistance
  1910 ;;		_average
  1911 ;; This function uses a non-reentrant model
  1912 ;;
  1913                           
  1914                           
  1915                           ;psect for function ___fldiv
  1916  0244                     ___fldiv:	
  1917                           
  1918                           ;incstack = 0
  1919                           ; Regs used in ___fldiv: [wreg+status,2+status,0+btemp+1]
  1920  0244  1283               	bcf	3,5	;RP0=0, select bank0
  1921  0245  1303               	bcf	3,6	;RP1=0, select bank0
  1922  0246  0835               	movf	___fldiv@b+3,w
  1923  0247  3980               	andlw	128
  1924  0248  00B6               	movwf	??___fldiv
  1925  0249  0836               	movf	??___fldiv,w
  1926  024A  00BF               	movwf	___fldiv@sign
  1927  024B  0835               	movf	___fldiv@b+3,w
  1928  024C  00B6               	movwf	??___fldiv
  1929  024D  0736               	addwf	??___fldiv,w
  1930  024E  00B7               	movwf	??___fldiv+1
  1931  024F  0837               	movf	??___fldiv+1,w
  1932  0250  00C6               	movwf	___fldiv@bexp
  1933  0251  1BB4               	btfsc	___fldiv@b+2,7
  1934  0252  1446               	bsf	___fldiv@bexp,0
  1935  0253  0846               	movf	___fldiv@bexp,w
  1936  0254  1903               	btfsc	3,2
  1937  0255  2A64               	goto	l1651
  1938  0256  0A46               	incf	___fldiv@bexp,w
  1939  0257  1D03               	btfss	3,2
  1940  0258  2A61               	goto	l1647
  1941  0259  3000               	movlw	0
  1942  025A  00B5               	movwf	___fldiv@b+3
  1943  025B  3000               	movlw	0
  1944  025C  00B4               	movwf	___fldiv@b+2
  1945  025D  3000               	movlw	0
  1946  025E  00B3               	movwf	___fldiv@b+1
  1947  025F  3000               	movlw	0
  1948  0260  00B2               	movwf	___fldiv@b
  1949  0261                     l1647:	
  1950  0261  17B4               	bsf	___fldiv@b+2,7
  1951  0262  01B5               	clrf	___fldiv@b+3
  1952  0263  2A6C               	goto	l1653
  1953  0264                     l1651:	
  1954  0264  3000               	movlw	0
  1955  0265  00B5               	movwf	___fldiv@b+3
  1956  0266  3000               	movlw	0
  1957  0267  00B4               	movwf	___fldiv@b+2
  1958  0268  3000               	movlw	0
  1959  0269  00B3               	movwf	___fldiv@b+1
  1960  026A  3000               	movlw	0
  1961  026B  00B2               	movwf	___fldiv@b
  1962  026C                     l1653:	
  1963  026C  0831               	movf	___fldiv@a+3,w
  1964  026D  3980               	andlw	128
  1965  026E  00B6               	movwf	??___fldiv
  1966  026F  0836               	movf	??___fldiv,w
  1967  0270  06BF               	xorwf	___fldiv@sign,f
  1968  0271  0831               	movf	___fldiv@a+3,w
  1969  0272  00B6               	movwf	??___fldiv
  1970  0273  0736               	addwf	??___fldiv,w
  1971  0274  00B7               	movwf	??___fldiv+1
  1972  0275  0837               	movf	??___fldiv+1,w
  1973  0276  00C7               	movwf	___fldiv@aexp
  1974  0277  1BB0               	btfsc	___fldiv@a+2,7
  1975  0278  1447               	bsf	___fldiv@aexp,0
  1976  0279  0847               	movf	___fldiv@aexp,w
  1977  027A  1903               	btfsc	3,2
  1978  027B  2A8A               	goto	l1671
  1979  027C  0A47               	incf	___fldiv@aexp,w
  1980  027D  1D03               	btfss	3,2
  1981  027E  2A87               	goto	l1667
  1982  027F  3000               	movlw	0
  1983  0280  00B1               	movwf	___fldiv@a+3
  1984  0281  3000               	movlw	0
  1985  0282  00B0               	movwf	___fldiv@a+2
  1986  0283  3000               	movlw	0
  1987  0284  00AF               	movwf	___fldiv@a+1
  1988  0285  3000               	movlw	0
  1989  0286  00AE               	movwf	___fldiv@a
  1990  0287                     l1667:	
  1991  0287  17B0               	bsf	___fldiv@a+2,7
  1992  0288  01B1               	clrf	___fldiv@a+3
  1993  0289  2A92               	goto	l608
  1994  028A                     l1671:	
  1995  028A  3000               	movlw	0
  1996  028B  00B1               	movwf	___fldiv@a+3
  1997  028C  3000               	movlw	0
  1998  028D  00B0               	movwf	___fldiv@a+2
  1999  028E  3000               	movlw	0
  2000  028F  00AF               	movwf	___fldiv@a+1
  2001  0290  3000               	movlw	0
  2002  0291  00AE               	movwf	___fldiv@a
  2003  0292                     l608:	
  2004  0292  0831               	movf	___fldiv@a+3,w
  2005  0293  0430               	iorwf	___fldiv@a+2,w
  2006  0294  042F               	iorwf	___fldiv@a+1,w
  2007  0295  042E               	iorwf	___fldiv@a,w
  2008  0296  1D03               	skipz
  2009  0297  2AB1               	goto	l1681
  2010  0298  3000               	movlw	0
  2011  0299  00B5               	movwf	___fldiv@b+3
  2012  029A  3000               	movlw	0
  2013  029B  00B4               	movwf	___fldiv@b+2
  2014  029C  3000               	movlw	0
  2015  029D  00B3               	movwf	___fldiv@b+1
  2016  029E  3000               	movlw	0
  2017  029F  00B2               	movwf	___fldiv@b
  2018  02A0  3080               	movlw	128
  2019  02A1  04B4               	iorwf	___fldiv@b+2,f
  2020  02A2  307F               	movlw	127
  2021  02A3  04B5               	iorwf	___fldiv@b+3,f
  2022  02A4                     L1:	
  2023  02A4  083F               	movf	___fldiv@sign,w
  2024  02A5  00B6               	movwf	??___fldiv
  2025  02A6  0836               	movf	??___fldiv,w
  2026  02A7  04B5               	iorwf	___fldiv@b+3,f
  2027  02A8  0835               	movf	___fldiv@b+3,w
  2028  02A9  00B1               	movwf	?___fldiv+3
  2029  02AA  0834               	movf	___fldiv@b+2,w
  2030  02AB  00B0               	movwf	?___fldiv+2
  2031  02AC  0833               	movf	___fldiv@b+1,w
  2032  02AD  00AF               	movwf	?___fldiv+1
  2033  02AE  0832               	movf	___fldiv@b,w
  2034  02AF  00AE               	movwf	?___fldiv
  2035  02B0  0008               	return
  2036  02B1                     l1681:	
  2037  02B1  0846               	movf	___fldiv@bexp,w
  2038  02B2  1D03               	btfss	3,2
  2039  02B3  2ABD               	goto	l1687
  2040  02B4  3000               	movlw	0
  2041  02B5  00B1               	movwf	?___fldiv+3
  2042  02B6  3000               	movlw	0
  2043  02B7  00B0               	movwf	?___fldiv+2
  2044  02B8  3000               	movlw	0
  2045  02B9  00AF               	movwf	?___fldiv+1
  2046  02BA  3000               	movlw	0
  2047  02BB  00AE               	movwf	?___fldiv
  2048  02BC  0008               	return
  2049  02BD                     l1687:	
  2050  02BD  0846               	movf	___fldiv@bexp,w
  2051  02BE  00B6               	movwf	??___fldiv
  2052  02BF  01B7               	clrf	??___fldiv+1
  2053  02C0  0837               	movf	??___fldiv+1,w
  2054  02C1  00B9               	movwf	??___fldiv+3
  2055  02C2  0847               	movf	___fldiv@aexp,w
  2056  02C3  0236               	subwf	??___fldiv,w
  2057  02C4  00B8               	movwf	??___fldiv+2
  2058  02C5  1C03               	skipc
  2059  02C6  03B9               	decf	??___fldiv+3,f
  2060  02C7  0838               	movf	??___fldiv+2,w
  2061  02C8  3E7F               	addlw	127
  2062  02C9  00C0               	movwf	___fldiv@new_exp
  2063  02CA  0839               	movf	??___fldiv+3,w
  2064  02CB  1803               	skipnc
  2065  02CC  3E01               	addlw	1
  2066  02CD  3E00               	addlw	0
  2067  02CE  00C1               	movwf	___fldiv@new_exp+1
  2068  02CF  0835               	movf	___fldiv@b+3,w
  2069  02D0  00BE               	movwf	___fldiv@rem+3
  2070  02D1  0834               	movf	___fldiv@b+2,w
  2071  02D2  00BD               	movwf	___fldiv@rem+2
  2072  02D3  0833               	movf	___fldiv@b+1,w
  2073  02D4  00BC               	movwf	___fldiv@rem+1
  2074  02D5  0832               	movf	___fldiv@b,w
  2075  02D6  00BB               	movwf	___fldiv@rem
  2076  02D7  3000               	movlw	0
  2077  02D8  00B5               	movwf	___fldiv@b+3
  2078  02D9  3000               	movlw	0
  2079  02DA  00B4               	movwf	___fldiv@b+2
  2080  02DB  3000               	movlw	0
  2081  02DC  00B3               	movwf	___fldiv@b+1
  2082  02DD  3000               	movlw	0
  2083  02DE  00B2               	movwf	___fldiv@b
  2084  02DF  3000               	movlw	0
  2085  02E0  00C5               	movwf	___fldiv@grs+3
  2086  02E1  3000               	movlw	0
  2087  02E2  00C4               	movwf	___fldiv@grs+2
  2088  02E3  3000               	movlw	0
  2089  02E4  00C3               	movwf	___fldiv@grs+1
  2090  02E5  3000               	movlw	0
  2091  02E6  00C2               	movwf	___fldiv@grs
  2092  02E7  01C7               	clrf	___fldiv@aexp
  2093  02E8                     l1715:	
  2094  02E8  301A               	movlw	26
  2095  02E9  0247               	subwf	___fldiv@aexp,w
  2096  02EA  1803               	btfsc	3,0
  2097  02EB  2B30               	goto	l1717
  2098  02EC  0847               	movf	___fldiv@aexp,w
  2099  02ED  1903               	btfsc	3,2
  2100  02EE  2B0C               	goto	l1707
  2101  02EF  3001               	movlw	1
  2102  02F0  00B6               	movwf	??___fldiv
  2103  02F1                     u1885:	
  2104  02F1  1003               	clrc
  2105  02F2  0DBB               	rlf	___fldiv@rem,f
  2106  02F3  0DBC               	rlf	___fldiv@rem+1,f
  2107  02F4  0DBD               	rlf	___fldiv@rem+2,f
  2108  02F5  0DBE               	rlf	___fldiv@rem+3,f
  2109  02F6  0BB6               	decfsz	??___fldiv,f
  2110  02F7  2AF1               	goto	u1885
  2111  02F8  3001               	movlw	1
  2112  02F9  00B6               	movwf	??___fldiv
  2113  02FA                     u1895:	
  2114  02FA  1003               	clrc
  2115  02FB  0DB2               	rlf	___fldiv@b,f
  2116  02FC  0DB3               	rlf	___fldiv@b+1,f
  2117  02FD  0DB4               	rlf	___fldiv@b+2,f
  2118  02FE  0DB5               	rlf	___fldiv@b+3,f
  2119  02FF  0BB6               	decfsz	??___fldiv,f
  2120  0300  2AFA               	goto	u1895
  2121  0301  1BC5               	btfsc	___fldiv@grs+3,7
  2122  0302  1432               	bsf	___fldiv@b,0
  2123  0303  3001               	movlw	1
  2124  0304  00B6               	movwf	??___fldiv
  2125  0305                     u1915:	
  2126  0305  1003               	clrc
  2127  0306  0DC2               	rlf	___fldiv@grs,f
  2128  0307  0DC3               	rlf	___fldiv@grs+1,f
  2129  0308  0DC4               	rlf	___fldiv@grs+2,f
  2130  0309  0DC5               	rlf	___fldiv@grs+3,f
  2131  030A  0BB6               	decfsz	??___fldiv,f
  2132  030B  2B05               	goto	u1915
  2133  030C                     l1707:	
  2134  030C  0831               	movf	___fldiv@a+3,w
  2135  030D  023E               	subwf	___fldiv@rem+3,w
  2136  030E  1D03               	skipz
  2137  030F  2B1A               	goto	u1925
  2138  0310  0830               	movf	___fldiv@a+2,w
  2139  0311  023D               	subwf	___fldiv@rem+2,w
  2140  0312  1D03               	skipz
  2141  0313  2B1A               	goto	u1925
  2142  0314  082F               	movf	___fldiv@a+1,w
  2143  0315  023C               	subwf	___fldiv@rem+1,w
  2144  0316  1D03               	skipz
  2145  0317  2B1A               	goto	u1925
  2146  0318  082E               	movf	___fldiv@a,w
  2147  0319  023B               	subwf	___fldiv@rem,w
  2148  031A                     u1925:	
  2149  031A  1C03               	skipc
  2150  031B  2B2B               	goto	l1713
  2151  031C  1745               	bsf	___fldiv@grs+3,6
  2152  031D  082E               	movf	___fldiv@a,w
  2153  031E  02BB               	subwf	___fldiv@rem,f
  2154  031F  082F               	movf	___fldiv@a+1,w
  2155  0320  1C03               	skipc
  2156  0321  0F2F               	incfsz	___fldiv@a+1,w
  2157  0322  02BC               	subwf	___fldiv@rem+1,f
  2158  0323  0830               	movf	___fldiv@a+2,w
  2159  0324  1C03               	skipc
  2160  0325  0F30               	incfsz	___fldiv@a+2,w
  2161  0326  02BD               	subwf	___fldiv@rem+2,f
  2162  0327  0831               	movf	___fldiv@a+3,w
  2163  0328  1C03               	skipc
  2164  0329  0F31               	incfsz	___fldiv@a+3,w
  2165  032A  02BE               	subwf	___fldiv@rem+3,f
  2166  032B                     l1713:	
  2167  032B  3001               	movlw	1
  2168  032C  00B6               	movwf	??___fldiv
  2169  032D  0836               	movf	??___fldiv,w
  2170  032E  07C7               	addwf	___fldiv@aexp,f
  2171  032F  2AE8               	goto	l1715
  2172  0330                     l1717:	
  2173  0330  083E               	movf	___fldiv@rem+3,w
  2174  0331  043D               	iorwf	___fldiv@rem+2,w
  2175  0332  043C               	iorwf	___fldiv@rem+1,w
  2176  0333  043B               	iorwf	___fldiv@rem,w
  2177  0334  1D03               	btfss	3,2
  2178  0335  1442               	bsf	___fldiv@grs,0
  2179  0336                     l1731:	
  2180  0336  1BB4               	btfsc	___fldiv@b+2,7
  2181  0337  2B53               	goto	l1733
  2182  0338  3001               	movlw	1
  2183  0339  00B6               	movwf	??___fldiv
  2184  033A                     u1955:	
  2185  033A  1003               	clrc
  2186  033B  0DB2               	rlf	___fldiv@b,f
  2187  033C  0DB3               	rlf	___fldiv@b+1,f
  2188  033D  0DB4               	rlf	___fldiv@b+2,f
  2189  033E  0DB5               	rlf	___fldiv@b+3,f
  2190  033F  0BB6               	decfsz	??___fldiv,f
  2191  0340  2B3A               	goto	u1955
  2192  0341  1BC5               	btfsc	___fldiv@grs+3,7
  2193  0342  1432               	bsf	___fldiv@b,0
  2194  0343  3001               	movlw	1
  2195  0344  00B6               	movwf	??___fldiv
  2196  0345                     u1975:	
  2197  0345  1003               	clrc
  2198  0346  0DC2               	rlf	___fldiv@grs,f
  2199  0347  0DC3               	rlf	___fldiv@grs+1,f
  2200  0348  0DC4               	rlf	___fldiv@grs+2,f
  2201  0349  0DC5               	rlf	___fldiv@grs+3,f
  2202  034A  0BB6               	decfsz	??___fldiv,f
  2203  034B  2B45               	goto	u1975
  2204  034C  30FF               	movlw	255
  2205  034D  07C0               	addwf	___fldiv@new_exp,f
  2206  034E  1803               	skipnc
  2207  034F  0AC1               	incf	___fldiv@new_exp+1,f
  2208  0350  30FF               	movlw	255
  2209  0351  07C1               	addwf	___fldiv@new_exp+1,f
  2210  0352  2B36               	goto	l1731
  2211  0353                     l1733:	
  2212  0353  01C7               	clrf	___fldiv@aexp
  2213  0354  1FC5               	btfss	___fldiv@grs+3,7
  2214  0355  2B6C               	goto	l1743
  2215  0356  30FF               	movlw	255
  2216  0357  0542               	andwf	___fldiv@grs,w
  2217  0358  00B6               	movwf	??___fldiv
  2218  0359  30FF               	movlw	255
  2219  035A  0543               	andwf	___fldiv@grs+1,w
  2220  035B  00B7               	movwf	??___fldiv+1
  2221  035C  30FF               	movlw	255
  2222  035D  0544               	andwf	___fldiv@grs+2,w
  2223  035E  00B8               	movwf	??___fldiv+2
  2224  035F  307F               	movlw	127
  2225  0360  0545               	andwf	___fldiv@grs+3,w
  2226  0361  00B9               	movwf	??___fldiv+3
  2227  0362  0839               	movf	??___fldiv+3,w
  2228  0363  0438               	iorwf	??___fldiv+2,w
  2229  0364  0437               	iorwf	??___fldiv+1,w
  2230  0365  0436               	iorwf	??___fldiv,w
  2231  0366  1903               	skipnz
  2232  0367  1832               	btfsc	___fldiv@b,0
  2233  0368  2B6A               	goto	l1739
  2234  0369  2B6C               	goto	l1743
  2235  036A                     l1739:	
  2236  036A  01C7               	clrf	___fldiv@aexp
  2237  036B  0AC7               	incf	___fldiv@aexp,f
  2238  036C                     l1743:	
  2239  036C  0847               	movf	___fldiv@aexp,w
  2240  036D  1903               	btfsc	3,2
  2241  036E  2B9E               	goto	l1753
  2242  036F  3001               	movlw	1
  2243  0370  07B2               	addwf	___fldiv@b,f
  2244  0371  3000               	movlw	0
  2245  0372  1803               	skipnc
  2246  0373  3001               	movlw	1
  2247  0374  07B3               	addwf	___fldiv@b+1,f
  2248  0375  3000               	movlw	0
  2249  0376  1803               	skipnc
  2250  0377  3001               	movlw	1
  2251  0378  07B4               	addwf	___fldiv@b+2,f
  2252  0379  3000               	movlw	0
  2253  037A  1803               	skipnc
  2254  037B  3001               	movlw	1
  2255  037C  07B5               	addwf	___fldiv@b+3,f
  2256  037D  1C35               	btfss	___fldiv@b+3,0
  2257  037E  2B9E               	goto	l1753
  2258  037F  0832               	movf	___fldiv@b,w
  2259  0380  00B6               	movwf	??___fldiv
  2260  0381  0833               	movf	___fldiv@b+1,w
  2261  0382  00B7               	movwf	??___fldiv+1
  2262  0383  0834               	movf	___fldiv@b+2,w
  2263  0384  00B8               	movwf	??___fldiv+2
  2264  0385  0835               	movf	___fldiv@b+3,w
  2265  0386  00B9               	movwf	??___fldiv+3
  2266  0387  3001               	movlw	1
  2267  0388  00BA               	movwf	??___fldiv+4
  2268  0389                     u2045:	
  2269  0389  0D39               	rlf	??___fldiv+3,w
  2270  038A  0CB9               	rrf	??___fldiv+3,f
  2271  038B  0CB8               	rrf	??___fldiv+2,f
  2272  038C  0CB7               	rrf	??___fldiv+1,f
  2273  038D  0CB6               	rrf	??___fldiv,f
  2274  038E  0BBA               	decfsz	??___fldiv+4,f
  2275  038F  2B89               	goto	u2045
  2276  0390  0839               	movf	??___fldiv+3,w
  2277  0391  00B5               	movwf	___fldiv@b+3
  2278  0392  0838               	movf	??___fldiv+2,w
  2279  0393  00B4               	movwf	___fldiv@b+2
  2280  0394  0837               	movf	??___fldiv+1,w
  2281  0395  00B3               	movwf	___fldiv@b+1
  2282  0396  0836               	movf	??___fldiv,w
  2283  0397  00B2               	movwf	___fldiv@b
  2284  0398  3001               	movlw	1
  2285  0399  07C0               	addwf	___fldiv@new_exp,f
  2286  039A  1803               	skipnc
  2287  039B  0AC1               	incf	___fldiv@new_exp+1,f
  2288  039C  3000               	movlw	0
  2289  039D  07C1               	addwf	___fldiv@new_exp+1,f
  2290  039E                     l1753:	
  2291  039E  0841               	movf	___fldiv@new_exp+1,w
  2292  039F  3A80               	xorlw	128
  2293  03A0  00FF               	movwf	127
  2294  03A1  3080               	movlw	128
  2295  03A2  027F               	subwf	127,w
  2296  03A3  1D03               	skipz
  2297  03A4  2BA7               	goto	u2055
  2298  03A5  30FF               	movlw	255
  2299  03A6  0240               	subwf	___fldiv@new_exp,w
  2300  03A7                     u2055:	
  2301  03A7  1C03               	skipc
  2302  03A8  2BB7               	goto	l1757
  2303  03A9  30FF               	movlw	255
  2304  03AA  1283               	bcf	3,5	;RP0=0, select bank0
  2305  03AB  1303               	bcf	3,6	;RP1=0, select bank0
  2306  03AC  00C0               	movwf	___fldiv@new_exp
  2307  03AD  3000               	movlw	0
  2308  03AE  00C1               	movwf	___fldiv@new_exp+1
  2309  03AF  3000               	movlw	0
  2310  03B0  00B5               	movwf	___fldiv@b+3
  2311  03B1  3000               	movlw	0
  2312  03B2  00B4               	movwf	___fldiv@b+2
  2313  03B3  3000               	movlw	0
  2314  03B4  00B3               	movwf	___fldiv@b+1
  2315  03B5  3000               	movlw	0
  2316  03B6  00B2               	movwf	___fldiv@b
  2317  03B7                     l1757:	
  2318  03B7  1283               	bcf	3,5	;RP0=0, select bank0
  2319  03B8  1303               	bcf	3,6	;RP1=0, select bank0
  2320  03B9  0841               	movf	___fldiv@new_exp+1,w
  2321  03BA  3A80               	xorlw	128
  2322  03BB  00FF               	movwf	127
  2323  03BC  3080               	movlw	128
  2324  03BD  027F               	subwf	127,w
  2325  03BE  1D03               	skipz
  2326  03BF  2BC2               	goto	u2065
  2327  03C0  3001               	movlw	1
  2328  03C1  0240               	subwf	___fldiv@new_exp,w
  2329  03C2                     u2065:	
  2330  03C2  1803               	skipnc
  2331  03C3  2BD1               	goto	l630
  2332  03C4  1283               	bcf	3,5	;RP0=0, select bank0
  2333  03C5  1303               	bcf	3,6	;RP1=0, select bank0
  2334  03C6  01C0               	clrf	___fldiv@new_exp
  2335  03C7  01C1               	clrf	___fldiv@new_exp+1
  2336  03C8  3000               	movlw	0
  2337  03C9  00B5               	movwf	___fldiv@b+3
  2338  03CA  3000               	movlw	0
  2339  03CB  00B4               	movwf	___fldiv@b+2
  2340  03CC  3000               	movlw	0
  2341  03CD  00B3               	movwf	___fldiv@b+1
  2342  03CE  3000               	movlw	0
  2343  03CF  00B2               	movwf	___fldiv@b
  2344  03D0  01BF               	clrf	___fldiv@sign
  2345  03D1                     l630:	
  2346  03D1  1283               	bcf	3,5	;RP0=0, select bank0
  2347  03D2  1303               	bcf	3,6	;RP1=0, select bank0
  2348  03D3  0840               	movf	___fldiv@new_exp,w
  2349  03D4  00B6               	movwf	??___fldiv
  2350  03D5  0836               	movf	??___fldiv,w
  2351  03D6  00C6               	movwf	___fldiv@bexp
  2352  03D7  1C46               	btfss	___fldiv@bexp,0
  2353  03D8  2BDB               	goto	l1769
  2354  03D9  17B4               	bsf	___fldiv@b+2,7
  2355  03DA  2BDF               	goto	l632
  2356  03DB                     l1769:	
  2357  03DB  307F               	movlw	127
  2358  03DC  00B6               	movwf	??___fldiv
  2359  03DD  0836               	movf	??___fldiv,w
  2360  03DE  05B4               	andwf	___fldiv@b+2,f
  2361  03DF                     l632:	
  2362  03DF  0846               	movf	___fldiv@bexp,w
  2363  03E0  00B6               	movwf	??___fldiv
  2364  03E1  1003               	clrc
  2365  03E2  0C36               	rrf	??___fldiv,w
  2366  03E3  00B7               	movwf	??___fldiv+1
  2367  03E4  0837               	movf	??___fldiv+1,w
  2368  03E5  00B5               	movwf	___fldiv@b+3
  2369  03E6  2AA4               	goto	L1
  2370  03E7                     __end_of___fldiv:	
  2371                           
  2372                           	psect	text9
  2373  0015                     __ptext9:	
  2374 ;; *************** function ___fladd *****************
  2375 ;; Defined at:
  2376 ;;		line 10 in file "/Applications/microchip/xc8/v2.05/pic/sources/c90/common/sprcadd.c"
  2377 ;; Parameters:    Size  Location     Type
  2378 ;;  b               4    0[BANK0 ] unsigned char 
  2379 ;;  a               4    4[BANK0 ] unsigned char 
  2380 ;; Auto vars:     Size  Location     Type
  2381 ;;  grs             1   19[BANK0 ] unsigned char 
  2382 ;;  bexp            1   18[BANK0 ] unsigned char 
  2383 ;;  aexp            1   17[BANK0 ] unsigned char 
  2384 ;;  signs           1   16[BANK0 ] unsigned char 
  2385 ;; Return value:  Size  Location     Type
  2386 ;;                  4    0[BANK0 ] unsigned char 
  2387 ;; Registers used:
  2388 ;;		wreg, status,2, status,0, btemp+1
  2389 ;; Tracked objects:
  2390 ;;		On entry : 0/0
  2391 ;;		On exit  : 0/0
  2392 ;;		Unchanged: 0/0
  2393 ;; Data sizes:     COMMON   BANK0   BANK1   BANK3   BANK2
  2394 ;;      Params:         0       8       0       0       0
  2395 ;;      Locals:         0       4       0       0       0
  2396 ;;      Temps:          0       8       0       0       0
  2397 ;;      Totals:         0      20       0       0       0
  2398 ;;Total ram usage:       20 bytes
  2399 ;; Hardware stack levels used:    1
  2400 ;; Hardware stack levels required when called:    4
  2401 ;; This function calls:
  2402 ;;		Nothing
  2403 ;; This function is called by:
  2404 ;;		_calculateDistance
  2405 ;;		_average
  2406 ;; This function uses a non-reentrant model
  2407 ;;
  2408                           
  2409                           
  2410                           ;psect for function ___fladd
  2411  0015                     ___fladd:	
  2412                           
  2413                           ;incstack = 0
  2414                           ; Regs used in ___fladd: [wreg+status,2+status,0+btemp+1]
  2415  0015  1283               	bcf	3,5	;RP0=0, select bank0
  2416  0016  1303               	bcf	3,6	;RP1=0, select bank0
  2417  0017  0823               	movf	___fladd@b+3,w
  2418  0018  3980               	andlw	128
  2419  0019  00A8               	movwf	??___fladd
  2420  001A  0828               	movf	??___fladd,w
  2421  001B  00B0               	movwf	___fladd@signs
  2422  001C  0823               	movf	___fladd@b+3,w
  2423  001D  00A8               	movwf	??___fladd
  2424  001E  0728               	addwf	??___fladd,w
  2425  001F  00A9               	movwf	??___fladd+1
  2426  0020  0829               	movf	??___fladd+1,w
  2427  0021  00B2               	movwf	___fladd@bexp
  2428  0022  1BA2               	btfsc	___fladd@b+2,7
  2429  0023  1432               	bsf	___fladd@bexp,0
  2430  0024  0832               	movf	___fladd@bexp,w
  2431  0025  1903               	btfsc	3,2
  2432  0026  2835               	goto	l1457
  2433  0027  0A32               	incf	___fladd@bexp,w
  2434  0028  1D03               	btfss	3,2
  2435  0029  2832               	goto	l1453
  2436  002A  3000               	movlw	0
  2437  002B  00A3               	movwf	___fladd@b+3
  2438  002C  3000               	movlw	0
  2439  002D  00A2               	movwf	___fladd@b+2
  2440  002E  3000               	movlw	0
  2441  002F  00A1               	movwf	___fladd@b+1
  2442  0030  3000               	movlw	0
  2443  0031  00A0               	movwf	___fladd@b
  2444  0032                     l1453:	
  2445  0032  17A2               	bsf	___fladd@b+2,7
  2446  0033  01A3               	clrf	___fladd@b+3
  2447  0034  283D               	goto	l1459
  2448  0035                     l1457:	
  2449  0035  3000               	movlw	0
  2450  0036  00A3               	movwf	___fladd@b+3
  2451  0037  3000               	movlw	0
  2452  0038  00A2               	movwf	___fladd@b+2
  2453  0039  3000               	movlw	0
  2454  003A  00A1               	movwf	___fladd@b+1
  2455  003B  3000               	movlw	0
  2456  003C  00A0               	movwf	___fladd@b
  2457  003D                     l1459:	
  2458  003D  0827               	movf	___fladd@a+3,w
  2459  003E  3980               	andlw	128
  2460  003F  00A8               	movwf	??___fladd
  2461  0040  0828               	movf	??___fladd,w
  2462  0041  00B1               	movwf	___fladd@aexp
  2463  0042  0831               	movf	___fladd@aexp,w
  2464  0043  0630               	xorwf	___fladd@signs,w
  2465  0044  1D03               	btfss	3,2
  2466  0045  1730               	bsf	___fladd@signs,6
  2467  0046  0827               	movf	___fladd@a+3,w
  2468  0047  00A8               	movwf	??___fladd
  2469  0048  0728               	addwf	??___fladd,w
  2470  0049  00A9               	movwf	??___fladd+1
  2471  004A  0829               	movf	??___fladd+1,w
  2472  004B  00B1               	movwf	___fladd@aexp
  2473  004C  1BA6               	btfsc	___fladd@a+2,7
  2474  004D  1431               	bsf	___fladd@aexp,0
  2475  004E  0831               	movf	___fladd@aexp,w
  2476  004F  1903               	btfsc	3,2
  2477  0050  285F               	goto	l1481
  2478  0051  0A31               	incf	___fladd@aexp,w
  2479  0052  1D03               	btfss	3,2
  2480  0053  285C               	goto	l1477
  2481  0054  3000               	movlw	0
  2482  0055  00A7               	movwf	___fladd@a+3
  2483  0056  3000               	movlw	0
  2484  0057  00A6               	movwf	___fladd@a+2
  2485  0058  3000               	movlw	0
  2486  0059  00A5               	movwf	___fladd@a+1
  2487  005A  3000               	movlw	0
  2488  005B  00A4               	movwf	___fladd@a
  2489  005C                     l1477:	
  2490  005C  17A6               	bsf	___fladd@a+2,7
  2491  005D  01A7               	clrf	___fladd@a+3
  2492  005E  2867               	goto	l552
  2493  005F                     l1481:	
  2494  005F  3000               	movlw	0
  2495  0060  00A7               	movwf	___fladd@a+3
  2496  0061  3000               	movlw	0
  2497  0062  00A6               	movwf	___fladd@a+2
  2498  0063  3000               	movlw	0
  2499  0064  00A5               	movwf	___fladd@a+1
  2500  0065  3000               	movlw	0
  2501  0066  00A4               	movwf	___fladd@a
  2502  0067                     l552:	
  2503  0067  0832               	movf	___fladd@bexp,w
  2504  0068  0231               	subwf	___fladd@aexp,w
  2505  0069  1803               	skipnc
  2506  006A  28AD               	goto	l1517
  2507  006B  1F30               	btfss	___fladd@signs,6
  2508  006C  2871               	goto	l1487
  2509  006D  3080               	movlw	128
  2510  006E  00A8               	movwf	??___fladd
  2511  006F  0828               	movf	??___fladd,w
  2512  0070  06B0               	xorwf	___fladd@signs,f
  2513  0071                     l1487:	
  2514  0071  0832               	movf	___fladd@bexp,w
  2515  0072  00A8               	movwf	??___fladd
  2516  0073  0828               	movf	??___fladd,w
  2517  0074  00B3               	movwf	___fladd@grs
  2518  0075  0831               	movf	___fladd@aexp,w
  2519  0076  00A8               	movwf	??___fladd
  2520  0077  0828               	movf	??___fladd,w
  2521  0078  00B2               	movwf	___fladd@bexp
  2522  0079  0833               	movf	___fladd@grs,w
  2523  007A  00A8               	movwf	??___fladd
  2524  007B  0828               	movf	??___fladd,w
  2525  007C  00B1               	movwf	___fladd@aexp
  2526  007D  0820               	movf	___fladd@b,w
  2527  007E  00A8               	movwf	??___fladd
  2528  007F  0828               	movf	??___fladd,w
  2529  0080  00B3               	movwf	___fladd@grs
  2530  0081  0824               	movf	___fladd@a,w
  2531  0082  00A8               	movwf	??___fladd
  2532  0083  0828               	movf	??___fladd,w
  2533  0084  00A0               	movwf	___fladd@b
  2534  0085  0833               	movf	___fladd@grs,w
  2535  0086  00A8               	movwf	??___fladd
  2536  0087  0828               	movf	??___fladd,w
  2537  0088  00A4               	movwf	___fladd@a
  2538  0089  0821               	movf	___fladd@b+1,w
  2539  008A  00A8               	movwf	??___fladd
  2540  008B  0828               	movf	??___fladd,w
  2541  008C  00B3               	movwf	___fladd@grs
  2542  008D  0825               	movf	___fladd@a+1,w
  2543  008E  00A8               	movwf	??___fladd
  2544  008F  0828               	movf	??___fladd,w
  2545  0090  00A1               	movwf	___fladd@b+1
  2546  0091  0833               	movf	___fladd@grs,w
  2547  0092  00A8               	movwf	??___fladd
  2548  0093  0828               	movf	??___fladd,w
  2549  0094  00A5               	movwf	___fladd@a+1
  2550  0095  0822               	movf	___fladd@b+2,w
  2551  0096  00A8               	movwf	??___fladd
  2552  0097  0828               	movf	??___fladd,w
  2553  0098  00B3               	movwf	___fladd@grs
  2554  0099  0826               	movf	___fladd@a+2,w
  2555  009A  00A8               	movwf	??___fladd
  2556  009B  0828               	movf	??___fladd,w
  2557  009C  00A2               	movwf	___fladd@b+2
  2558  009D  0833               	movf	___fladd@grs,w
  2559  009E  00A8               	movwf	??___fladd
  2560  009F  0828               	movf	??___fladd,w
  2561  00A0  00A6               	movwf	___fladd@a+2
  2562  00A1  0823               	movf	___fladd@b+3,w
  2563  00A2  00A8               	movwf	??___fladd
  2564  00A3  0828               	movf	??___fladd,w
  2565  00A4  00B3               	movwf	___fladd@grs
  2566  00A5  0827               	movf	___fladd@a+3,w
  2567  00A6  00A8               	movwf	??___fladd
  2568  00A7  0828               	movf	??___fladd,w
  2569  00A8  00A3               	movwf	___fladd@b+3
  2570  00A9  0833               	movf	___fladd@grs,w
  2571  00AA  00A8               	movwf	??___fladd
  2572  00AB  0828               	movf	??___fladd,w
  2573  00AC  00A7               	movwf	___fladd@a+3
  2574  00AD                     l1517:	
  2575  00AD  01B3               	clrf	___fladd@grs
  2576  00AE  0831               	movf	___fladd@aexp,w
  2577  00AF  00A8               	movwf	??___fladd
  2578  00B0  01A9               	clrf	??___fladd+1
  2579  00B1  0829               	movf	??___fladd+1,w
  2580  00B2  00AB               	movwf	??___fladd+3
  2581  00B3  0832               	movf	___fladd@bexp,w
  2582  00B4  0228               	subwf	??___fladd,w
  2583  00B5  00AA               	movwf	??___fladd+2
  2584  00B6  1C03               	skipc
  2585  00B7  03AB               	decf	??___fladd+3,f
  2586  00B8  082B               	movf	??___fladd+3,w
  2587  00B9  3A80               	xorlw	128
  2588  00BA  00FF               	movwf	127
  2589  00BB  3080               	movlw	128
  2590  00BC  027F               	subwf	127,w
  2591  00BD  1D03               	skipz
  2592  00BE  28C1               	goto	u1425
  2593  00BF  301A               	movlw	26
  2594  00C0  022A               	subwf	??___fladd+2,w
  2595  00C1                     u1425:	
  2596  00C1  1C03               	skipc
  2597  00C2  28FA               	goto	l1535
  2598  00C3  1283               	bcf	3,5	;RP0=0, select bank0
  2599  00C4  1303               	bcf	3,6	;RP1=0, select bank0
  2600  00C5  0823               	movf	___fladd@b+3,w
  2601  00C6  0422               	iorwf	___fladd@b+2,w
  2602  00C7  0421               	iorwf	___fladd@b+1,w
  2603  00C8  0420               	iorwf	___fladd@b,w
  2604  00C9  1903               	btfsc	3,2
  2605  00CA  28CD               	goto	u1430
  2606  00CB  3001               	movlw	1
  2607  00CC  28CE               	goto	u1440
  2608  00CD                     u1430:	
  2609  00CD  3000               	movlw	0
  2610  00CE                     u1440:	
  2611  00CE  00A8               	movwf	??___fladd
  2612  00CF  0828               	movf	??___fladd,w
  2613  00D0  00B3               	movwf	___fladd@grs
  2614  00D1  3000               	movlw	0
  2615  00D2  00A3               	movwf	___fladd@b+3
  2616  00D3  3000               	movlw	0
  2617  00D4  00A2               	movwf	___fladd@b+2
  2618  00D5  3000               	movlw	0
  2619  00D6  00A1               	movwf	___fladd@b+1
  2620  00D7  3000               	movlw	0
  2621  00D8  00A0               	movwf	___fladd@b
  2622  00D9  0831               	movf	___fladd@aexp,w
  2623  00DA  00A8               	movwf	??___fladd
  2624  00DB  0828               	movf	??___fladd,w
  2625  00DC  00B2               	movwf	___fladd@bexp
  2626  00DD  2900               	goto	l556
  2627  00DE                     l558:	
  2628  00DE  1C33               	btfss	___fladd@grs,0
  2629  00DF  28E9               	goto	l1525
  2630  00E0  0833               	movf	___fladd@grs,w
  2631  00E1  00A8               	movwf	??___fladd
  2632  00E2  1003               	clrc
  2633  00E3  0C28               	rrf	??___fladd,w
  2634  00E4  3801               	iorlw	1
  2635  00E5  00A9               	movwf	??___fladd+1
  2636  00E6  0829               	movf	??___fladd+1,w
  2637  00E7  00B3               	movwf	___fladd@grs
  2638  00E8  28EB               	goto	l1527
  2639  00E9                     l1525:	
  2640  00E9  1003               	clrc
  2641  00EA  0CB3               	rrf	___fladd@grs,f
  2642  00EB                     l1527:	
  2643  00EB  1820               	btfsc	___fladd@b,0
  2644  00EC  17B3               	bsf	___fladd@grs,7
  2645  00ED  3001               	movlw	1
  2646  00EE  00A8               	movwf	??___fladd
  2647  00EF                     u1475:	
  2648  00EF  0D23               	rlf	___fladd@b+3,w
  2649  00F0  0CA3               	rrf	___fladd@b+3,f
  2650  00F1  0CA2               	rrf	___fladd@b+2,f
  2651  00F2  0CA1               	rrf	___fladd@b+1,f
  2652  00F3  0CA0               	rrf	___fladd@b,f
  2653  00F4  0BA8               	decfsz	??___fladd& (0+127),f
  2654  00F5  28EF               	goto	u1475
  2655  00F6  3001               	movlw	1
  2656  00F7  00A8               	movwf	??___fladd
  2657  00F8  0828               	movf	??___fladd,w
  2658  00F9  07B2               	addwf	___fladd@bexp,f
  2659  00FA                     l1535:	
  2660  00FA  1283               	bcf	3,5	;RP0=0, select bank0
  2661  00FB  1303               	bcf	3,6	;RP1=0, select bank0
  2662  00FC  0831               	movf	___fladd@aexp,w
  2663  00FD  0232               	subwf	___fladd@bexp,w
  2664  00FE  1C03               	skipc
  2665  00FF  28DE               	goto	l558
  2666  0100                     l556:	
  2667  0100  1B30               	btfsc	___fladd@signs,6
  2668  0101  2941               	goto	l1561
  2669  0102  0832               	movf	___fladd@bexp,w
  2670  0103  1D03               	btfss	3,2
  2671  0104  290E               	goto	l1543
  2672  0105  3000               	movlw	0
  2673  0106  00A3               	movwf	?___fladd+3
  2674  0107  3000               	movlw	0
  2675  0108  00A2               	movwf	?___fladd+2
  2676  0109  3000               	movlw	0
  2677  010A  00A1               	movwf	?___fladd+1
  2678  010B  3000               	movlw	0
  2679  010C  00A0               	movwf	?___fladd
  2680  010D  0008               	return
  2681  010E                     l1543:	
  2682  010E  0824               	movf	___fladd@a,w
  2683  010F  07A0               	addwf	___fladd@b,f
  2684  0110  0825               	movf	___fladd@a+1,w
  2685  0111  1103               	clrz
  2686  0112  1803               	skipnc
  2687  0113  3E01               	addlw	1
  2688  0114  1D03               	btfss	3,2
  2689  0115  07A1               	addwf	___fladd@b+1,f
  2690  0116  0826               	movf	___fladd@a+2,w
  2691  0117  1103               	clrz
  2692  0118  1803               	skipnc
  2693  0119  3E01               	addlw	1
  2694  011A  1D03               	btfss	3,2
  2695  011B  07A2               	addwf	___fladd@b+2,f
  2696  011C  0827               	movf	___fladd@a+3,w
  2697  011D  1103               	clrz
  2698  011E  1803               	skipnc
  2699  011F  3E01               	addlw	1
  2700  0120  1D03               	btfss	3,2
  2701  0121  07A3               	addwf	___fladd@b+3,f
  2702  0122  1C23               	btfss	___fladd@b+3,0
  2703  0123  29E3               	goto	l1595
  2704  0124  1C33               	btfss	___fladd@grs,0
  2705  0125  292F               	goto	l1551
  2706  0126  0833               	movf	___fladd@grs,w
  2707  0127  00A8               	movwf	??___fladd
  2708  0128  1003               	clrc
  2709  0129  0C28               	rrf	??___fladd,w
  2710  012A  3801               	iorlw	1
  2711  012B  00A9               	movwf	??___fladd+1
  2712  012C  0829               	movf	??___fladd+1,w
  2713  012D  00B3               	movwf	___fladd@grs
  2714  012E  2931               	goto	l1553
  2715  012F                     l1551:	
  2716  012F  1003               	clrc
  2717  0130  0CB3               	rrf	___fladd@grs,f
  2718  0131                     l1553:	
  2719  0131  1820               	btfsc	___fladd@b,0
  2720  0132  17B3               	bsf	___fladd@grs,7
  2721  0133  3001               	movlw	1
  2722  0134  00A8               	movwf	??___fladd
  2723  0135                     u1555:	
  2724  0135  0D23               	rlf	___fladd@b+3,w
  2725  0136  0CA3               	rrf	___fladd@b+3,f
  2726  0137  0CA2               	rrf	___fladd@b+2,f
  2727  0138  0CA1               	rrf	___fladd@b+1,f
  2728  0139  0CA0               	rrf	___fladd@b,f
  2729  013A  0BA8               	decfsz	??___fladd& (0+127),f
  2730  013B  2935               	goto	u1555
  2731  013C  3001               	movlw	1
  2732  013D  00A8               	movwf	??___fladd
  2733  013E  0828               	movf	??___fladd,w
  2734  013F  07B2               	addwf	___fladd@bexp,f
  2735  0140  29E3               	goto	l1595
  2736  0141                     l1561:	
  2737  0141  0823               	movf	___fladd@b+3,w
  2738  0142  3A80               	xorlw	128
  2739  0143  00FF               	movwf	127
  2740  0144  0827               	movf	___fladd@a+3,w
  2741  0145  3A80               	xorlw	128
  2742  0146  027F               	subwf	127,w
  2743  0147  1D03               	skipz
  2744  0148  2953               	goto	u1563
  2745  0149  0826               	movf	___fladd@a+2,w
  2746  014A  0222               	subwf	___fladd@b+2,w
  2747  014B  1D03               	skipz
  2748  014C  2953               	goto	u1563
  2749  014D  0825               	movf	___fladd@a+1,w
  2750  014E  0221               	subwf	___fladd@b+1,w
  2751  014F  1D03               	skipz
  2752  0150  2953               	goto	u1563
  2753  0151  0824               	movf	___fladd@a,w
  2754  0152  0220               	subwf	___fladd@b,w
  2755  0153                     u1563:	
  2756  0153  1803               	skipnc
  2757  0154  29AB               	goto	l1571
  2758  0155  30FF               	movlw	255
  2759  0156  00A8               	movwf	??___fladd
  2760  0157  30FF               	movlw	255
  2761  0158  00A9               	movwf	??___fladd+1
  2762  0159  30FF               	movlw	255
  2763  015A  00AA               	movwf	??___fladd+2
  2764  015B  30FF               	movlw	255
  2765  015C  00AB               	movwf	??___fladd+3
  2766  015D  0824               	movf	___fladd@a,w
  2767  015E  00AC               	movwf	??___fladd+4
  2768  015F  0825               	movf	___fladd@a+1,w
  2769  0160  00AD               	movwf	??___fladd+5
  2770  0161  0826               	movf	___fladd@a+2,w
  2771  0162  00AE               	movwf	??___fladd+6
  2772  0163  0827               	movf	___fladd@a+3,w
  2773  0164  00AF               	movwf	??___fladd+7
  2774  0165  0820               	movf	___fladd@b,w
  2775  0166  02AC               	subwf	??___fladd+4,f
  2776  0167  0821               	movf	___fladd@b+1,w
  2777  0168  1C03               	skipc
  2778  0169  0F21               	incfsz	___fladd@b+1,w
  2779  016A  296C               	goto	u1571
  2780  016B  296D               	goto	u1572
  2781  016C                     u1571:	
  2782  016C  02AD               	subwf	??___fladd+5,f
  2783  016D                     u1572:	
  2784  016D  0822               	movf	___fladd@b+2,w
  2785  016E  1C03               	skipc
  2786  016F  0F22               	incfsz	___fladd@b+2,w
  2787  0170  2972               	goto	u1573
  2788  0171  2973               	goto	u1574
  2789  0172                     u1573:	
  2790  0172  02AE               	subwf	??___fladd+6,f
  2791  0173                     u1574:	
  2792  0173  0823               	movf	___fladd@b+3,w
  2793  0174  1C03               	skipc
  2794  0175  0F23               	incfsz	___fladd@b+3,w
  2795  0176  2978               	goto	u1575
  2796  0177  2979               	goto	u1576
  2797  0178                     u1575:	
  2798  0178  02AF               	subwf	??___fladd+7,f
  2799  0179                     u1576:	
  2800  0179  082C               	movf	??___fladd+4,w
  2801  017A  07A8               	addwf	??___fladd,f
  2802  017B  082D               	movf	??___fladd+5,w
  2803  017C  1803               	skipnc
  2804  017D  0F2D               	incfsz	??___fladd+5,w
  2805  017E  2980               	goto	u1580
  2806  017F  2981               	goto	u1581
  2807  0180                     u1580:	
  2808  0180  07A9               	addwf	??___fladd+1,f
  2809  0181                     u1581:	
  2810  0181  082E               	movf	??___fladd+6,w
  2811  0182  1803               	skipnc
  2812  0183  0F2E               	incfsz	??___fladd+6,w
  2813  0184  2986               	goto	u1582
  2814  0185  2987               	goto	u1583
  2815  0186                     u1582:	
  2816  0186  07AA               	addwf	??___fladd+2,f
  2817  0187                     u1583:	
  2818  0187  082F               	movf	??___fladd+7,w
  2819  0188  1803               	skipnc
  2820  0189  0A2F               	incf	??___fladd+7,w
  2821  018A  07AB               	addwf	??___fladd+3,f
  2822  018B  082B               	movf	??___fladd+3,w
  2823  018C  00A3               	movwf	___fladd@b+3
  2824  018D  082A               	movf	??___fladd+2,w
  2825  018E  00A2               	movwf	___fladd@b+2
  2826  018F  0829               	movf	??___fladd+1,w
  2827  0190  00A1               	movwf	___fladd@b+1
  2828  0191  0828               	movf	??___fladd,w
  2829  0192  00A0               	movwf	___fladd@b
  2830  0193  3080               	movlw	128
  2831  0194  00A8               	movwf	??___fladd
  2832  0195  0828               	movf	??___fladd,w
  2833  0196  06B0               	xorwf	___fladd@signs,f
  2834  0197  09B3               	comf	___fladd@grs,f
  2835  0198  0AB3               	incf	___fladd@grs,f
  2836  0199  0833               	movf	___fladd@grs,w
  2837  019A  1D03               	btfss	3,2
  2838  019B  29B9               	goto	l573
  2839  019C  3001               	movlw	1
  2840  019D  07A0               	addwf	___fladd@b,f
  2841  019E  3000               	movlw	0
  2842  019F  1803               	skipnc
  2843  01A0  3001               	movlw	1
  2844  01A1  07A1               	addwf	___fladd@b+1,f
  2845  01A2  3000               	movlw	0
  2846  01A3  1803               	skipnc
  2847  01A4  3001               	movlw	1
  2848  01A5  07A2               	addwf	___fladd@b+2,f
  2849  01A6  3000               	movlw	0
  2850  01A7  1803               	skipnc
  2851  01A8  3001               	movlw	1
  2852  01A9  07A3               	addwf	___fladd@b+3,f
  2853  01AA  29B9               	goto	l573
  2854  01AB                     l1571:	
  2855  01AB  0824               	movf	___fladd@a,w
  2856  01AC  02A0               	subwf	___fladd@b,f
  2857  01AD  0825               	movf	___fladd@a+1,w
  2858  01AE  1C03               	skipc
  2859  01AF  0F25               	incfsz	___fladd@a+1,w
  2860  01B0  02A1               	subwf	___fladd@b+1,f
  2861  01B1  0826               	movf	___fladd@a+2,w
  2862  01B2  1C03               	skipc
  2863  01B3  0F26               	incfsz	___fladd@a+2,w
  2864  01B4  02A2               	subwf	___fladd@b+2,f
  2865  01B5  0827               	movf	___fladd@a+3,w
  2866  01B6  1C03               	skipc
  2867  01B7  0F27               	incfsz	___fladd@a+3,w
  2868  01B8  02A3               	subwf	___fladd@b+3,f
  2869  01B9                     l573:	
  2870  01B9  0823               	movf	___fladd@b+3,w
  2871  01BA  0422               	iorwf	___fladd@b+2,w
  2872  01BB  0421               	iorwf	___fladd@b+1,w
  2873  01BC  0420               	iorwf	___fladd@b,w
  2874  01BD  1D03               	skipz
  2875  01BE  29E1               	goto	l1593
  2876  01BF  0833               	movf	___fladd@grs,w
  2877  01C0  1D03               	btfss	3,2
  2878  01C1  29E1               	goto	l1593
  2879  01C2  3000               	movlw	0
  2880  01C3  00A3               	movwf	?___fladd+3
  2881  01C4  3000               	movlw	0
  2882  01C5  00A2               	movwf	?___fladd+2
  2883  01C6  3000               	movlw	0
  2884  01C7  00A1               	movwf	?___fladd+1
  2885  01C8  3000               	movlw	0
  2886  01C9  00A0               	movwf	?___fladd
  2887  01CA  0008               	return
  2888  01CB                     l1579:	
  2889  01CB  3001               	movlw	1
  2890  01CC  00A8               	movwf	??___fladd
  2891  01CD                     u1625:	
  2892  01CD  1003               	clrc
  2893  01CE  0DA0               	rlf	___fladd@b,f
  2894  01CF  0DA1               	rlf	___fladd@b+1,f
  2895  01D0  0DA2               	rlf	___fladd@b+2,f
  2896  01D1  0DA3               	rlf	___fladd@b+3,f
  2897  01D2  0BA8               	decfsz	??___fladd,f
  2898  01D3  29CD               	goto	u1625
  2899  01D4  1BB3               	btfsc	___fladd@grs,7
  2900  01D5  1420               	bsf	___fladd@b,0
  2901  01D6  1C33               	btfss	___fladd@grs,0
  2902  01D7  29DA               	goto	l1587
  2903  01D8  1403               	setc
  2904  01D9  29DB               	goto	L2
  2905  01DA                     l1587:	
  2906  01DA  1003               	clrc
  2907  01DB                     L2:	
  2908  01DB  0DB3               	rlf	___fladd@grs,f
  2909  01DC  0832               	movf	___fladd@bexp,w
  2910  01DD  1903               	btfsc	3,2
  2911  01DE  29E1               	goto	l1593
  2912  01DF  3001               	movlw	1
  2913  01E0  02B2               	subwf	___fladd@bexp,f
  2914  01E1                     l1593:	
  2915  01E1  1FA2               	btfss	___fladd@b+2,7
  2916  01E2  29CB               	goto	l1579
  2917  01E3                     l1595:	
  2918  01E3  01B1               	clrf	___fladd@aexp
  2919  01E4  1FB3               	btfss	___fladd@grs,7
  2920  01E5  29EE               	goto	l1605
  2921  01E6  0833               	movf	___fladd@grs,w
  2922  01E7  397F               	andlw	127
  2923  01E8  1903               	btfsc	3,2
  2924  01E9  1820               	btfsc	___fladd@b,0
  2925  01EA  29EC               	goto	l1601
  2926  01EB  29EE               	goto	l1605
  2927  01EC                     l1601:	
  2928  01EC  01B1               	clrf	___fladd@aexp
  2929  01ED  0AB1               	incf	___fladd@aexp,f
  2930  01EE                     l1605:	
  2931  01EE  0831               	movf	___fladd@aexp,w
  2932  01EF  1903               	btfsc	3,2
  2933  01F0  2A21               	goto	l586
  2934  01F1  3001               	movlw	1
  2935  01F2  07A0               	addwf	___fladd@b,f
  2936  01F3  3000               	movlw	0
  2937  01F4  1803               	skipnc
  2938  01F5  3001               	movlw	1
  2939  01F6  07A1               	addwf	___fladd@b+1,f
  2940  01F7  3000               	movlw	0
  2941  01F8  1803               	skipnc
  2942  01F9  3001               	movlw	1
  2943  01FA  07A2               	addwf	___fladd@b+2,f
  2944  01FB  3000               	movlw	0
  2945  01FC  1803               	skipnc
  2946  01FD  3001               	movlw	1
  2947  01FE  07A3               	addwf	___fladd@b+3,f
  2948  01FF  1C23               	btfss	___fladd@b+3,0
  2949  0200  2A21               	goto	l586
  2950  0201  0820               	movf	___fladd@b,w
  2951  0202  00A8               	movwf	??___fladd
  2952  0203  0821               	movf	___fladd@b+1,w
  2953  0204  00A9               	movwf	??___fladd+1
  2954  0205  0822               	movf	___fladd@b+2,w
  2955  0206  00AA               	movwf	??___fladd+2
  2956  0207  0823               	movf	___fladd@b+3,w
  2957  0208  00AB               	movwf	??___fladd+3
  2958  0209  3001               	movlw	1
  2959  020A  00AC               	movwf	??___fladd+4
  2960  020B                     u1725:	
  2961  020B  0D2B               	rlf	??___fladd+3,w
  2962  020C  0CAB               	rrf	??___fladd+3,f
  2963  020D  0CAA               	rrf	??___fladd+2,f
  2964  020E  0CA9               	rrf	??___fladd+1,f
  2965  020F  0CA8               	rrf	??___fladd,f
  2966  0210  0BAC               	decfsz	??___fladd+4,f
  2967  0211  2A0B               	goto	u1725
  2968  0212  082B               	movf	??___fladd+3,w
  2969  0213  00A3               	movwf	___fladd@b+3
  2970  0214  082A               	movf	??___fladd+2,w
  2971  0215  00A2               	movwf	___fladd@b+2
  2972  0216  0829               	movf	??___fladd+1,w
  2973  0217  00A1               	movwf	___fladd@b+1
  2974  0218  0828               	movf	??___fladd,w
  2975  0219  00A0               	movwf	___fladd@b
  2976  021A  0A32               	incf	___fladd@bexp,w
  2977  021B  1903               	btfsc	3,2
  2978  021C  2A21               	goto	l586
  2979  021D  3001               	movlw	1
  2980  021E  00A8               	movwf	??___fladd
  2981  021F  0828               	movf	??___fladd,w
  2982  0220  07B2               	addwf	___fladd@bexp,f
  2983  0221                     l586:	
  2984  0221  0A32               	incf	___fladd@bexp,w
  2985  0222  1D03               	btfss	3,2
  2986  0223  0832               	movf	___fladd@bexp,w
  2987  0224  1D03               	btfss	3,2
  2988  0225  2A31               	goto	l1623
  2989  0226  3000               	movlw	0
  2990  0227  00A3               	movwf	___fladd@b+3
  2991  0228  3000               	movlw	0
  2992  0229  00A2               	movwf	___fladd@b+2
  2993  022A  3000               	movlw	0
  2994  022B  00A1               	movwf	___fladd@b+1
  2995  022C  3000               	movlw	0
  2996  022D  00A0               	movwf	___fladd@b
  2997  022E  0832               	movf	___fladd@bexp,w
  2998  022F  1903               	btfsc	3,2
  2999  0230  01B0               	clrf	___fladd@signs
  3000  0231                     l1623:	
  3001  0231  1C32               	btfss	___fladd@bexp,0
  3002  0232  2A35               	goto	l1627
  3003  0233  17A2               	bsf	___fladd@b+2,7
  3004  0234  2A39               	goto	l594
  3005  0235                     l1627:	
  3006  0235  307F               	movlw	127
  3007  0236  00A8               	movwf	??___fladd
  3008  0237  0828               	movf	??___fladd,w
  3009  0238  05A2               	andwf	___fladd@b+2,f
  3010  0239                     l594:	
  3011  0239  0832               	movf	___fladd@bexp,w
  3012  023A  00A8               	movwf	??___fladd
  3013  023B  1003               	clrc
  3014  023C  0C28               	rrf	??___fladd,w
  3015  023D  00A9               	movwf	??___fladd+1
  3016  023E  0829               	movf	??___fladd+1,w
  3017  023F  00A3               	movwf	___fladd@b+3
  3018  0240  1FB0               	btfss	___fladd@signs,7
  3019  0241  0008               	return
  3020  0242  17A3               	bsf	___fladd@b+3,7
  3021  0243  0008               	return
  3022  0244                     __end_of___fladd:	
  3023                           
  3024                           	psect	text10
  3025  07F5                     __ptext10:	
  3026 ;; *************** function _changeMode *****************
  3027 ;; Defined at:
  3028 ;;		line 139 in file "main.c"
  3029 ;; Parameters:    Size  Location     Type
  3030 ;;  m               1    wreg     unsigned char 
  3031 ;; Auto vars:     Size  Location     Type
  3032 ;;  m               1    3[BANK0 ] unsigned char 
  3033 ;; Return value:  Size  Location     Type
  3034 ;;                  1    wreg      void 
  3035 ;; Registers used:
  3036 ;;		wreg, status,2, status,0, pclath, cstack
  3037 ;; Tracked objects:
  3038 ;;		On entry : 0/0
  3039 ;;		On exit  : 0/0
  3040 ;;		Unchanged: 0/0
  3041 ;; Data sizes:     COMMON   BANK0   BANK1   BANK3   BANK2
  3042 ;;      Params:         0       0       0       0       0
  3043 ;;      Locals:         0       1       0       0       0
  3044 ;;      Temps:          0       1       0       0       0
  3045 ;;      Totals:         0       2       0       0       0
  3046 ;;Total ram usage:        2 bytes
  3047 ;; Hardware stack levels used:    1
  3048 ;; Hardware stack levels required when called:    6
  3049 ;; This function calls:
  3050 ;;		_writeData
  3051 ;; This function is called by:
  3052 ;;		_main
  3053 ;; This function uses a non-reentrant model
  3054 ;;
  3055                           
  3056                           
  3057                           ;psect for function _changeMode
  3058  07F5                     _changeMode:	
  3059                           
  3060                           ;incstack = 0
  3061                           ; Regs used in _changeMode: [wreg+status,2+status,0+pclath+cstack]
  3062                           ;changeMode@m stored from wreg
  3063  07F5  1283               	bcf	3,5	;RP0=0, select bank0
  3064  07F6  1303               	bcf	3,6	;RP1=0, select bank0
  3065  07F7  00A3               	movwf	changeMode@m
  3066                           
  3067                           ;main.c: 140:     mode = m;
  3068  07F8  0823               	movf	changeMode@m,w
  3069  07F9  00A2               	movwf	??_changeMode
  3070  07FA  0822               	movf	??_changeMode,w
  3071  07FB  00F8               	movwf	_mode
  3072                           
  3073                           ;main.c: 141:     writeData(mode);
  3074  07FC  0878               	movf	_mode,w
  3075  07FD  158A  2690         	fcall	_writeData
  3076  07FF  0008               	return
  3077  0800                     __end_of_changeMode:	
  3078                           
  3079                           	psect	text11
  3080  0E90                     __ptext11:	
  3081 ;; *************** function _writeData *****************
  3082 ;; Defined at:
  3083 ;;		line 98 in file "main.c"
  3084 ;; Parameters:    Size  Location     Type
  3085 ;;  c               1    wreg     unsigned char 
  3086 ;; Auto vars:     Size  Location     Type
  3087 ;;  c               1    1[BANK0 ] unsigned char 
  3088 ;; Return value:  Size  Location     Type
  3089 ;;                  1    wreg      void 
  3090 ;; Registers used:
  3091 ;;		wreg, status,2, status,0, pclath, cstack
  3092 ;; Tracked objects:
  3093 ;;		On entry : 0/0
  3094 ;;		On exit  : 0/0
  3095 ;;		Unchanged: 0/0
  3096 ;; Data sizes:     COMMON   BANK0   BANK1   BANK3   BANK2
  3097 ;;      Params:         0       0       0       0       0
  3098 ;;      Locals:         0       1       0       0       0
  3099 ;;      Temps:          0       0       0       0       0
  3100 ;;      Totals:         0       1       0       0       0
  3101 ;;Total ram usage:        1 bytes
  3102 ;; Hardware stack levels used:    1
  3103 ;; Hardware stack levels required when called:    5
  3104 ;; This function calls:
  3105 ;;		_UART_Write
  3106 ;; This function is called by:
  3107 ;;		_changeMode
  3108 ;; This function uses a non-reentrant model
  3109 ;;
  3110                           
  3111                           
  3112                           ;psect for function _writeData
  3113  0E90                     _writeData:	
  3114                           
  3115                           ;incstack = 0
  3116                           ; Regs used in _writeData: [wreg+status,2+status,0+pclath+cstack]
  3117                           ;writeData@c stored from wreg
  3118  0E90  1283               	bcf	3,5	;RP0=0, select bank0
  3119  0E91  1303               	bcf	3,6	;RP1=0, select bank0
  3120  0E92  00A1               	movwf	writeData@c
  3121                           
  3122                           ;main.c: 99:     UART_Write(c);
  3123  0E93  0821               	movf	writeData@c,w
  3124  0E94  118A  27E9         	fcall	_UART_Write
  3125  0E96  0008               	return
  3126  0E97                     __end_of_writeData:	
  3127                           
  3128                           	psect	text12
  3129  07E9                     __ptext12:	
  3130 ;; *************** function _UART_Write *****************
  3131 ;; Defined at:
  3132 ;;		line 52 in file "./uart.h"
  3133 ;; Parameters:    Size  Location     Type
  3134 ;;  data            1    wreg     unsigned char 
  3135 ;; Auto vars:     Size  Location     Type
  3136 ;;  data            1    0[BANK0 ] unsigned char 
  3137 ;; Return value:  Size  Location     Type
  3138 ;;                  1    wreg      void 
  3139 ;; Registers used:
  3140 ;;		wreg
  3141 ;; Tracked objects:
  3142 ;;		On entry : 0/0
  3143 ;;		On exit  : 0/0
  3144 ;;		Unchanged: 0/0
  3145 ;; Data sizes:     COMMON   BANK0   BANK1   BANK3   BANK2
  3146 ;;      Params:         0       0       0       0       0
  3147 ;;      Locals:         0       1       0       0       0
  3148 ;;      Temps:          0       0       0       0       0
  3149 ;;      Totals:         0       1       0       0       0
  3150 ;;Total ram usage:        1 bytes
  3151 ;; Hardware stack levels used:    1
  3152 ;; Hardware stack levels required when called:    4
  3153 ;; This function calls:
  3154 ;;		Nothing
  3155 ;; This function is called by:
  3156 ;;		_writeData
  3157 ;;		_UART_Write_Text
  3158 ;; This function uses a non-reentrant model
  3159 ;;
  3160                           
  3161                           
  3162                           ;psect for function _UART_Write
  3163  07E9                     _UART_Write:	
  3164                           
  3165                           ;incstack = 0
  3166                           ; Regs used in _UART_Write: [wreg]
  3167                           ;UART_Write@data stored from wreg
  3168  07E9  1283               	bcf	3,5	;RP0=0, select bank0
  3169  07EA  1303               	bcf	3,6	;RP1=0, select bank0
  3170  07EB  00A0               	movwf	UART_Write@data
  3171  07EC                     l98:	
  3172                           ;./uart.h: 52: void UART_Write(char data);./uart.h: 53: {;./uart.h: 54:   while(!TRMT);
  3173                           
  3174  07EC  1683               	bsf	3,5	;RP0=1, select bank1
  3175  07ED  1303               	bcf	3,6	;RP1=0, select bank1
  3176  07EE  1C98               	btfss	24,1	;volatile
  3177  07EF  2FEC               	goto	l98
  3178                           
  3179                           ;./uart.h: 55:   TXREG = data;
  3180  07F0  1283               	bcf	3,5	;RP0=0, select bank0
  3181  07F1  1303               	bcf	3,6	;RP1=0, select bank0
  3182  07F2  0820               	movf	UART_Write@data,w
  3183  07F3  0099               	movwf	25	;volatile
  3184  07F4  0008               	return
  3185  07F5                     __end_of_UART_Write:	
  3186                           
  3187                           	psect	text13
  3188  0633                     __ptext13:	
  3189 ;; *************** function ___flge *****************
  3190 ;; Defined at:
  3191 ;;		line 4 in file "/Applications/microchip/xc8/v2.05/pic/sources/c90/common/flge.c"
  3192 ;; Parameters:    Size  Location     Type
  3193 ;;  ff1             4   59[BANK0 ] void 
  3194 ;;  ff2             4   63[BANK0 ] void 
  3195 ;; Auto vars:     Size  Location     Type
  3196 ;;		None
  3197 ;; Return value:  Size  Location     Type
  3198 ;;		None               void
  3199 ;; Registers used:
  3200 ;;		wreg, status,2, status,0
  3201 ;; Tracked objects:
  3202 ;;		On entry : 0/0
  3203 ;;		On exit  : 0/0
  3204 ;;		Unchanged: 0/0
  3205 ;; Data sizes:     COMMON   BANK0   BANK1   BANK3   BANK2
  3206 ;;      Params:         0       8       0       0       0
  3207 ;;      Locals:         0       0       0       0       0
  3208 ;;      Temps:          0       4       0       0       0
  3209 ;;      Totals:         0      12       0       0       0
  3210 ;;Total ram usage:       12 bytes
  3211 ;; Hardware stack levels used:    1
  3212 ;; Hardware stack levels required when called:    4
  3213 ;; This function calls:
  3214 ;;		Nothing
  3215 ;; This function is called by:
  3216 ;;		_main
  3217 ;; This function uses a non-reentrant model
  3218 ;;
  3219                           
  3220                           
  3221                           ;psect for function ___flge
  3222  0633                     ___flge:	
  3223                           
  3224                           ;incstack = 0
  3225                           ; Regs used in ___flge: [wreg+status,2+status,0]
  3226  0633  3000               	movlw	0
  3227  0634  1283               	bcf	3,5	;RP0=0, select bank0
  3228  0635  1303               	bcf	3,6	;RP1=0, select bank0
  3229  0636  055B               	andwf	___flge@ff1,w
  3230  0637  00E3               	movwf	??___flge
  3231  0638  3000               	movlw	0
  3232  0639  055C               	andwf	___flge@ff1+1,w
  3233  063A  00E4               	movwf	??___flge+1
  3234  063B  3080               	movlw	128
  3235  063C  055D               	andwf	___flge@ff1+2,w
  3236  063D  00E5               	movwf	??___flge+2
  3237  063E  307F               	movlw	127
  3238  063F  055E               	andwf	___flge@ff1+3,w
  3239  0640  00E6               	movwf	??___flge+3
  3240  0641  0866               	movf	??___flge+3,w
  3241  0642  0465               	iorwf	??___flge+2,w
  3242  0643  0464               	iorwf	??___flge+1,w
  3243  0644  0463               	iorwf	??___flge,w
  3244  0645  1D03               	skipz
  3245  0646  2E4F               	goto	l433
  3246  0647  3000               	movlw	0
  3247  0648  00DE               	movwf	___flge@ff1+3
  3248  0649  3000               	movlw	0
  3249  064A  00DD               	movwf	___flge@ff1+2
  3250  064B  3000               	movlw	0
  3251  064C  00DC               	movwf	___flge@ff1+1
  3252  064D  3000               	movlw	0
  3253  064E  00DB               	movwf	___flge@ff1
  3254  064F                     l433:	
  3255  064F  3000               	movlw	0
  3256  0650  055F               	andwf	___flge@ff2,w
  3257  0651  00E3               	movwf	??___flge
  3258  0652  3000               	movlw	0
  3259  0653  0560               	andwf	___flge@ff2+1,w
  3260  0654  00E4               	movwf	??___flge+1
  3261  0655  3080               	movlw	128
  3262  0656  0561               	andwf	___flge@ff2+2,w
  3263  0657  00E5               	movwf	??___flge+2
  3264  0658  307F               	movlw	127
  3265  0659  0562               	andwf	___flge@ff2+3,w
  3266  065A  00E6               	movwf	??___flge+3
  3267  065B  0866               	movf	??___flge+3,w
  3268  065C  0465               	iorwf	??___flge+2,w
  3269  065D  0464               	iorwf	??___flge+1,w
  3270  065E  0463               	iorwf	??___flge,w
  3271  065F  1D03               	skipz
  3272  0660  2E69               	goto	l1983
  3273  0661  3000               	movlw	0
  3274  0662  00E2               	movwf	___flge@ff2+3
  3275  0663  3000               	movlw	0
  3276  0664  00E1               	movwf	___flge@ff2+2
  3277  0665  3000               	movlw	0
  3278  0666  00E0               	movwf	___flge@ff2+1
  3279  0667  3000               	movlw	0
  3280  0668  00DF               	movwf	___flge@ff2
  3281  0669                     l1983:	
  3282  0669  1FDE               	btfss	___flge@ff1+3,7
  3283  066A  2E8F               	goto	l1987
  3284  066B  3000               	movlw	0
  3285  066C  00E3               	movwf	??___flge
  3286  066D  3000               	movlw	0
  3287  066E  00E4               	movwf	??___flge+1
  3288  066F  3000               	movlw	0
  3289  0670  00E5               	movwf	??___flge+2
  3290  0671  3080               	movlw	128
  3291  0672  00E6               	movwf	??___flge+3
  3292  0673  085B               	movf	___flge@ff1,w
  3293  0674  02E3               	subwf	??___flge,f
  3294  0675  085C               	movf	___flge@ff1+1,w
  3295  0676  1C03               	skipc
  3296  0677  0F5C               	incfsz	___flge@ff1+1,w
  3297  0678  2E7A               	goto	u2551
  3298  0679  2E7B               	goto	u2552
  3299  067A                     u2551:	
  3300  067A  02E4               	subwf	??___flge+1,f
  3301  067B                     u2552:	
  3302  067B  085D               	movf	___flge@ff1+2,w
  3303  067C  1C03               	skipc
  3304  067D  0F5D               	incfsz	___flge@ff1+2,w
  3305  067E  2E80               	goto	u2553
  3306  067F  2E81               	goto	u2554
  3307  0680                     u2553:	
  3308  0680  02E5               	subwf	??___flge+2,f
  3309  0681                     u2554:	
  3310  0681  085E               	movf	___flge@ff1+3,w
  3311  0682  1C03               	skipc
  3312  0683  0F5E               	incfsz	___flge@ff1+3,w
  3313  0684  2E86               	goto	u2555
  3314  0685  2E87               	goto	u2556
  3315  0686                     u2555:	
  3316  0686  02E6               	subwf	??___flge+3,f
  3317  0687                     u2556:	
  3318  0687  0866               	movf	??___flge+3,w
  3319  0688  00DE               	movwf	___flge@ff1+3
  3320  0689  0865               	movf	??___flge+2,w
  3321  068A  00DD               	movwf	___flge@ff1+2
  3322  068B  0864               	movf	??___flge+1,w
  3323  068C  00DC               	movwf	___flge@ff1+1
  3324  068D  0863               	movf	??___flge,w
  3325  068E  00DB               	movwf	___flge@ff1
  3326  068F                     l1987:	
  3327  068F  1FE2               	btfss	___flge@ff2+3,7
  3328  0690  2EB5               	goto	l436
  3329  0691  3000               	movlw	0
  3330  0692  00E3               	movwf	??___flge
  3331  0693  3000               	movlw	0
  3332  0694  00E4               	movwf	??___flge+1
  3333  0695  3000               	movlw	0
  3334  0696  00E5               	movwf	??___flge+2
  3335  0697  3080               	movlw	128
  3336  0698  00E6               	movwf	??___flge+3
  3337  0699  085F               	movf	___flge@ff2,w
  3338  069A  02E3               	subwf	??___flge,f
  3339  069B  0860               	movf	___flge@ff2+1,w
  3340  069C  1C03               	skipc
  3341  069D  0F60               	incfsz	___flge@ff2+1,w
  3342  069E  2EA0               	goto	u2571
  3343  069F  2EA1               	goto	u2572
  3344  06A0                     u2571:	
  3345  06A0  02E4               	subwf	??___flge+1,f
  3346  06A1                     u2572:	
  3347  06A1  0861               	movf	___flge@ff2+2,w
  3348  06A2  1C03               	skipc
  3349  06A3  0F61               	incfsz	___flge@ff2+2,w
  3350  06A4  2EA6               	goto	u2573
  3351  06A5  2EA7               	goto	u2574
  3352  06A6                     u2573:	
  3353  06A6  02E5               	subwf	??___flge+2,f
  3354  06A7                     u2574:	
  3355  06A7  0862               	movf	___flge@ff2+3,w
  3356  06A8  1C03               	skipc
  3357  06A9  0F62               	incfsz	___flge@ff2+3,w
  3358  06AA  2EAC               	goto	u2575
  3359  06AB  2EAD               	goto	u2576
  3360  06AC                     u2575:	
  3361  06AC  02E6               	subwf	??___flge+3,f
  3362  06AD                     u2576:	
  3363  06AD  0866               	movf	??___flge+3,w
  3364  06AE  00E2               	movwf	___flge@ff2+3
  3365  06AF  0865               	movf	??___flge+2,w
  3366  06B0  00E1               	movwf	___flge@ff2+2
  3367  06B1  0864               	movf	??___flge+1,w
  3368  06B2  00E0               	movwf	___flge@ff2+1
  3369  06B3  0863               	movf	??___flge,w
  3370  06B4  00DF               	movwf	___flge@ff2
  3371  06B5                     l436:	
  3372  06B5  3080               	movlw	128
  3373  06B6  06DE               	xorwf	___flge@ff1+3,f
  3374  06B7  3080               	movlw	128
  3375  06B8  06E2               	xorwf	___flge@ff2+3,f
  3376  06B9  0862               	movf	___flge@ff2+3,w
  3377  06BA  025E               	subwf	___flge@ff1+3,w
  3378  06BB  1D03               	skipz
  3379  06BC  0008               	return
  3380  06BD  0861               	movf	___flge@ff2+2,w
  3381  06BE  025D               	subwf	___flge@ff1+2,w
  3382  06BF  1D03               	skipz
  3383  06C0  0008               	return
  3384  06C1  0860               	movf	___flge@ff2+1,w
  3385  06C2  025C               	subwf	___flge@ff1+1,w
  3386  06C3  1D03               	skipz
  3387  06C4  0008               	return
  3388  06C5  085F               	movf	___flge@ff2,w
  3389  06C6  025B               	subwf	___flge@ff1,w
  3390  06C7  0008               	return
  3391  06C8                     __end_of___flge:	
  3392                           
  3393                           	psect	text14
  3394  03E7                     __ptext14:	
  3395 ;; *************** function _UART_Init *****************
  3396 ;; Defined at:
  3397 ;;		line 6 in file "./uart.h"
  3398 ;; Parameters:    Size  Location     Type
  3399 ;;  baudrate        4   15[BANK0 ] const long 
  3400 ;; Auto vars:     Size  Location     Type
  3401 ;;  x               2   31[BANK0 ] unsigned int 
  3402 ;; Return value:  Size  Location     Type
  3403 ;;                  1    wreg      unsigned char 
  3404 ;; Registers used:
  3405 ;;		wreg, status,2, status,0, pclath, cstack
  3406 ;; Tracked objects:
  3407 ;;		On entry : 0/0
  3408 ;;		On exit  : 0/0
  3409 ;;		Unchanged: 0/0
  3410 ;; Data sizes:     COMMON   BANK0   BANK1   BANK3   BANK2
  3411 ;;      Params:         0       4       0       0       0
  3412 ;;      Locals:         0       2       0       0       0
  3413 ;;      Temps:          0      12       0       0       0
  3414 ;;      Totals:         0      18       0       0       0
  3415 ;;Total ram usage:       18 bytes
  3416 ;; Hardware stack levels used:    1
  3417 ;; Hardware stack levels required when called:    5
  3418 ;; This function calls:
  3419 ;;		___aldiv
  3420 ;; This function is called by:
  3421 ;;		_main
  3422 ;; This function uses a non-reentrant model
  3423 ;;
  3424                           
  3425                           
  3426                           ;psect for function _UART_Init
  3427  03E7                     _UART_Init:	
  3428                           
  3429                           ;./uart.h: 6: char UART_Init(const long int baudrate);./uart.h: 7: {;./uart.h: 8:  unsig
      +                          ned int x;;./uart.h: 9:  x = (4000000 - baudrate*64)/(baudrate*64);
  3430                           
  3431                           ;incstack = 0
  3432                           ; Regs used in _UART_Init: [wreg+status,2+status,0+pclath+cstack]
  3433  03E7  1283               	bcf	3,5	;RP0=0, select bank0
  3434  03E8  1303               	bcf	3,6	;RP1=0, select bank0
  3435  03E9  082F               	movf	UART_Init@baudrate,w
  3436  03EA  00B3               	movwf	??_UART_Init
  3437  03EB  0830               	movf	UART_Init@baudrate+1,w
  3438  03EC  00B4               	movwf	??_UART_Init+1
  3439  03ED  0831               	movf	UART_Init@baudrate+2,w
  3440  03EE  00B5               	movwf	??_UART_Init+2
  3441  03EF  0832               	movf	UART_Init@baudrate+3,w
  3442  03F0  00B6               	movwf	??_UART_Init+3
  3443  03F1  3006               	movlw	6
  3444  03F2                     u2805:	
  3445  03F2  1003               	clrc
  3446  03F3  0DB3               	rlf	??_UART_Init,f
  3447  03F4  0DB4               	rlf	??_UART_Init+1,f
  3448  03F5  0DB5               	rlf	??_UART_Init+2,f
  3449  03F6  0DB6               	rlf	??_UART_Init+3,f
  3450  03F7  3EFF               	addlw	-1
  3451  03F8  1D03               	skipz
  3452  03F9  2BF2               	goto	u2805
  3453  03FA  0836               	movf	??_UART_Init+3,w
  3454  03FB  00A3               	movwf	___aldiv@divisor+3
  3455  03FC  0835               	movf	??_UART_Init+2,w
  3456  03FD  00A2               	movwf	___aldiv@divisor+2
  3457  03FE  0834               	movf	??_UART_Init+1,w
  3458  03FF  00A1               	movwf	___aldiv@divisor+1
  3459  0400  0833               	movf	??_UART_Init,w
  3460  0401  00A0               	movwf	___aldiv@divisor
  3461  0402  082F               	movf	UART_Init@baudrate,w
  3462  0403  00B7               	movwf	??_UART_Init+4
  3463  0404  0830               	movf	UART_Init@baudrate+1,w
  3464  0405  00B8               	movwf	??_UART_Init+5
  3465  0406  0831               	movf	UART_Init@baudrate+2,w
  3466  0407  00B9               	movwf	??_UART_Init+6
  3467  0408  0832               	movf	UART_Init@baudrate+3,w
  3468  0409  00BA               	movwf	??_UART_Init+7
  3469  040A  3006               	movlw	6
  3470  040B                     u2815:	
  3471  040B  1003               	clrc
  3472  040C  0DB7               	rlf	??_UART_Init+4,f
  3473  040D  0DB8               	rlf	??_UART_Init+5,f
  3474  040E  0DB9               	rlf	??_UART_Init+6,f
  3475  040F  0DBA               	rlf	??_UART_Init+7,f
  3476  0410  3EFF               	addlw	-1
  3477  0411  1D03               	skipz
  3478  0412  2C0B               	goto	u2815
  3479  0413  3000               	movlw	0
  3480  0414  00BB               	movwf	??_UART_Init+8
  3481  0415  3009               	movlw	9
  3482  0416  00BC               	movwf	??_UART_Init+9
  3483  0417  303D               	movlw	61
  3484  0418  00BD               	movwf	??_UART_Init+10
  3485  0419  3000               	movlw	0
  3486  041A  00BE               	movwf	??_UART_Init+11
  3487  041B  0837               	movf	??_UART_Init+4,w
  3488  041C  02BB               	subwf	??_UART_Init+8,f
  3489  041D  0838               	movf	??_UART_Init+5,w
  3490  041E  1C03               	skipc
  3491  041F  0F38               	incfsz	??_UART_Init+5,w
  3492  0420  2C22               	goto	u2821
  3493  0421  2C23               	goto	u2822
  3494  0422                     u2821:	
  3495  0422  02BC               	subwf	??_UART_Init+9,f
  3496  0423                     u2822:	
  3497  0423  0839               	movf	??_UART_Init+6,w
  3498  0424  1C03               	skipc
  3499  0425  0F39               	incfsz	??_UART_Init+6,w
  3500  0426  2C28               	goto	u2823
  3501  0427  2C29               	goto	u2824
  3502  0428                     u2823:	
  3503  0428  02BD               	subwf	??_UART_Init+10,f
  3504  0429                     u2824:	
  3505  0429  083A               	movf	??_UART_Init+7,w
  3506  042A  1C03               	skipc
  3507  042B  0F3A               	incfsz	??_UART_Init+7,w
  3508  042C  2C2E               	goto	u2825
  3509  042D  2C2F               	goto	u2826
  3510  042E                     u2825:	
  3511  042E  02BE               	subwf	??_UART_Init+11,f
  3512  042F                     u2826:	
  3513  042F  083E               	movf	??_UART_Init+11,w
  3514  0430  00A7               	movwf	___aldiv@dividend+3
  3515  0431  083D               	movf	??_UART_Init+10,w
  3516  0432  00A6               	movwf	___aldiv@dividend+2
  3517  0433  083C               	movf	??_UART_Init+9,w
  3518  0434  00A5               	movwf	___aldiv@dividend+1
  3519  0435  083B               	movf	??_UART_Init+8,w
  3520  0436  00A4               	movwf	___aldiv@dividend
  3521  0437  118A  26C8  118A   	fcall	___aldiv
  3522  043A  1283               	bcf	3,5	;RP0=0, select bank0
  3523  043B  1303               	bcf	3,6	;RP1=0, select bank0
  3524  043C  0821               	movf	?___aldiv+1,w
  3525  043D  00C0               	movwf	UART_Init@x+1
  3526  043E  0820               	movf	?___aldiv,w
  3527  043F  00BF               	movwf	UART_Init@x
  3528                           
  3529                           ;./uart.h: 10:  if(x>255)
  3530  0440  3001               	movlw	1
  3531  0441  0240               	subwf	UART_Init@x+1,w
  3532  0442  3000               	movlw	0
  3533  0443  1903               	skipnz
  3534  0444  023F               	subwf	UART_Init@x,w
  3535  0445  1C03               	skipc
  3536  0446  2CA1               	goto	l2177
  3537                           
  3538                           ;./uart.h: 11:  {;./uart.h: 12:   x = (4000000 - baudrate*16)/(baudrate*16);
  3539  0447  082F               	movf	UART_Init@baudrate,w
  3540  0448  00B3               	movwf	??_UART_Init
  3541  0449  0830               	movf	UART_Init@baudrate+1,w
  3542  044A  00B4               	movwf	??_UART_Init+1
  3543  044B  0831               	movf	UART_Init@baudrate+2,w
  3544  044C  00B5               	movwf	??_UART_Init+2
  3545  044D  0832               	movf	UART_Init@baudrate+3,w
  3546  044E  00B6               	movwf	??_UART_Init+3
  3547  044F  3004               	movlw	4
  3548  0450                     u2845:	
  3549  0450  1003               	clrc
  3550  0451  0DB3               	rlf	??_UART_Init,f
  3551  0452  0DB4               	rlf	??_UART_Init+1,f
  3552  0453  0DB5               	rlf	??_UART_Init+2,f
  3553  0454  0DB6               	rlf	??_UART_Init+3,f
  3554  0455  3EFF               	addlw	-1
  3555  0456  1D03               	skipz
  3556  0457  2C50               	goto	u2845
  3557  0458  0836               	movf	??_UART_Init+3,w
  3558  0459  00A3               	movwf	___aldiv@divisor+3
  3559  045A  0835               	movf	??_UART_Init+2,w
  3560  045B  00A2               	movwf	___aldiv@divisor+2
  3561  045C  0834               	movf	??_UART_Init+1,w
  3562  045D  00A1               	movwf	___aldiv@divisor+1
  3563  045E  0833               	movf	??_UART_Init,w
  3564  045F  00A0               	movwf	___aldiv@divisor
  3565  0460  082F               	movf	UART_Init@baudrate,w
  3566  0461  00B7               	movwf	??_UART_Init+4
  3567  0462  0830               	movf	UART_Init@baudrate+1,w
  3568  0463  00B8               	movwf	??_UART_Init+5
  3569  0464  0831               	movf	UART_Init@baudrate+2,w
  3570  0465  00B9               	movwf	??_UART_Init+6
  3571  0466  0832               	movf	UART_Init@baudrate+3,w
  3572  0467  00BA               	movwf	??_UART_Init+7
  3573  0468  3004               	movlw	4
  3574  0469                     u2855:	
  3575  0469  1003               	clrc
  3576  046A  0DB7               	rlf	??_UART_Init+4,f
  3577  046B  0DB8               	rlf	??_UART_Init+5,f
  3578  046C  0DB9               	rlf	??_UART_Init+6,f
  3579  046D  0DBA               	rlf	??_UART_Init+7,f
  3580  046E  3EFF               	addlw	-1
  3581  046F  1D03               	skipz
  3582  0470  2C69               	goto	u2855
  3583  0471  3000               	movlw	0
  3584  0472  00BB               	movwf	??_UART_Init+8
  3585  0473  3009               	movlw	9
  3586  0474  00BC               	movwf	??_UART_Init+9
  3587  0475  303D               	movlw	61
  3588  0476  00BD               	movwf	??_UART_Init+10
  3589  0477  3000               	movlw	0
  3590  0478  00BE               	movwf	??_UART_Init+11
  3591  0479  0837               	movf	??_UART_Init+4,w
  3592  047A  02BB               	subwf	??_UART_Init+8,f
  3593  047B  0838               	movf	??_UART_Init+5,w
  3594  047C  1C03               	skipc
  3595  047D  0F38               	incfsz	??_UART_Init+5,w
  3596  047E  2C80               	goto	u2861
  3597  047F  2C81               	goto	u2862
  3598  0480                     u2861:	
  3599  0480  02BC               	subwf	??_UART_Init+9,f
  3600  0481                     u2862:	
  3601  0481  0839               	movf	??_UART_Init+6,w
  3602  0482  1C03               	skipc
  3603  0483  0F39               	incfsz	??_UART_Init+6,w
  3604  0484  2C86               	goto	u2863
  3605  0485  2C87               	goto	u2864
  3606  0486                     u2863:	
  3607  0486  02BD               	subwf	??_UART_Init+10,f
  3608  0487                     u2864:	
  3609  0487  083A               	movf	??_UART_Init+7,w
  3610  0488  1C03               	skipc
  3611  0489  0F3A               	incfsz	??_UART_Init+7,w
  3612  048A  2C8C               	goto	u2865
  3613  048B  2C8D               	goto	u2866
  3614  048C                     u2865:	
  3615  048C  02BE               	subwf	??_UART_Init+11,f
  3616  048D                     u2866:	
  3617  048D  083E               	movf	??_UART_Init+11,w
  3618  048E  00A7               	movwf	___aldiv@dividend+3
  3619  048F  083D               	movf	??_UART_Init+10,w
  3620  0490  00A6               	movwf	___aldiv@dividend+2
  3621  0491  083C               	movf	??_UART_Init+9,w
  3622  0492  00A5               	movwf	___aldiv@dividend+1
  3623  0493  083B               	movf	??_UART_Init+8,w
  3624  0494  00A4               	movwf	___aldiv@dividend
  3625  0495  118A  26C8  118A   	fcall	___aldiv
  3626  0498  1283               	bcf	3,5	;RP0=0, select bank0
  3627  0499  1303               	bcf	3,6	;RP1=0, select bank0
  3628  049A  0821               	movf	?___aldiv+1,w
  3629  049B  00C0               	movwf	UART_Init@x+1
  3630  049C  0820               	movf	?___aldiv,w
  3631  049D  00BF               	movwf	UART_Init@x
  3632                           
  3633                           ;./uart.h: 13:   BRGH = 1;
  3634  049E  1683               	bsf	3,5	;RP0=1, select bank1
  3635  049F  1303               	bcf	3,6	;RP1=0, select bank1
  3636  04A0  1518               	bsf	24,2	;volatile
  3637  04A1                     l2177:	
  3638                           
  3639                           ;./uart.h: 15:  if(x<256)
  3640  04A1  3001               	movlw	1
  3641  04A2  1283               	bcf	3,5	;RP0=0, select bank0
  3642  04A3  0240               	subwf	UART_Init@x+1,w
  3643  04A4  3000               	movlw	0
  3644  04A5  1903               	skipnz
  3645  04A6  023F               	subwf	UART_Init@x,w
  3646  04A7  1803               	skipnc
  3647  04A8  0008               	return
  3648                           
  3649                           ;./uart.h: 16:  {;./uart.h: 17:    SPBRG = x;
  3650  04A9  083F               	movf	UART_Init@x,w
  3651  04AA  1683               	bsf	3,5	;RP0=1, select bank1
  3652  04AB  1303               	bcf	3,6	;RP1=0, select bank1
  3653  04AC  0099               	movwf	25	;volatile
  3654                           
  3655                           ;./uart.h: 18:    SYNC = 0;
  3656  04AD  1218               	bcf	24,4	;volatile
  3657                           
  3658                           ;./uart.h: 19:    SPEN = 1;
  3659  04AE  1283               	bcf	3,5	;RP0=0, select bank0
  3660  04AF  1303               	bcf	3,6	;RP1=0, select bank0
  3661  04B0  1798               	bsf	24,7	;volatile
  3662                           
  3663                           ;./uart.h: 20:           TRISB2 = 1;
  3664  04B1  1683               	bsf	3,5	;RP0=1, select bank1
  3665  04B2  1303               	bcf	3,6	;RP1=0, select bank1
  3666  04B3  1506               	bsf	6,2	;volatile
  3667                           
  3668                           ;./uart.h: 21:           TRISB5 = 1;
  3669  04B4  1686               	bsf	6,5	;volatile
  3670                           
  3671                           ;./uart.h: 22:           CREN = 1;
  3672  04B5  1283               	bcf	3,5	;RP0=0, select bank0
  3673  04B6  1303               	bcf	3,6	;RP1=0, select bank0
  3674  04B7  1618               	bsf	24,4	;volatile
  3675                           
  3676                           ;./uart.h: 23:           TXEN = 1;
  3677  04B8  1683               	bsf	3,5	;RP0=1, select bank1
  3678  04B9  1303               	bcf	3,6	;RP1=0, select bank1
  3679  04BA  1698               	bsf	24,5	;volatile
  3680  04BB  0008               	return
  3681  04BC                     __end_of_UART_Init:	
  3682                           
  3683                           	psect	text15
  3684  06C8                     __ptext15:	
  3685 ;; *************** function ___aldiv *****************
  3686 ;; Defined at:
  3687 ;;		line 5 in file "/Applications/microchip/xc8/v2.05/pic/sources/c90/common/aldiv.c"
  3688 ;; Parameters:    Size  Location     Type
  3689 ;;  divisor         4    0[BANK0 ] long 
  3690 ;;  dividend        4    4[BANK0 ] long 
  3691 ;; Auto vars:     Size  Location     Type
  3692 ;;  quotient        4   11[BANK0 ] long 
  3693 ;;  sign            1   10[BANK0 ] unsigned char 
  3694 ;;  counter         1    9[BANK0 ] unsigned char 
  3695 ;; Return value:  Size  Location     Type
  3696 ;;                  4    0[BANK0 ] long 
  3697 ;; Registers used:
  3698 ;;		wreg, status,2, status,0
  3699 ;; Tracked objects:
  3700 ;;		On entry : 0/0
  3701 ;;		On exit  : 0/0
  3702 ;;		Unchanged: 0/0
  3703 ;; Data sizes:     COMMON   BANK0   BANK1   BANK3   BANK2
  3704 ;;      Params:         0       8       0       0       0
  3705 ;;      Locals:         0       6       0       0       0
  3706 ;;      Temps:          0       1       0       0       0
  3707 ;;      Totals:         0      15       0       0       0
  3708 ;;Total ram usage:       15 bytes
  3709 ;; Hardware stack levels used:    1
  3710 ;; Hardware stack levels required when called:    4
  3711 ;; This function calls:
  3712 ;;		Nothing
  3713 ;; This function is called by:
  3714 ;;		_UART_Init
  3715 ;; This function uses a non-reentrant model
  3716 ;;
  3717                           
  3718                           
  3719                           ;psect for function ___aldiv
  3720  06C8                     ___aldiv:	
  3721                           
  3722                           ;incstack = 0
  3723                           ; Regs used in ___aldiv: [wreg+status,2+status,0]
  3724  06C8  1283               	bcf	3,5	;RP0=0, select bank0
  3725  06C9  1303               	bcf	3,6	;RP1=0, select bank0
  3726  06CA  01AA               	clrf	___aldiv@sign
  3727  06CB  1FA3               	btfss	___aldiv@divisor+3,7
  3728  06CC  2EDA               	goto	l324
  3729  06CD  09A0               	comf	___aldiv@divisor,f
  3730  06CE  09A1               	comf	___aldiv@divisor+1,f
  3731  06CF  09A2               	comf	___aldiv@divisor+2,f
  3732  06D0  09A3               	comf	___aldiv@divisor+3,f
  3733  06D1  0AA0               	incf	___aldiv@divisor,f
  3734  06D2  1903               	skipnz
  3735  06D3  0AA1               	incf	___aldiv@divisor+1,f
  3736  06D4  1903               	skipnz
  3737  06D5  0AA2               	incf	___aldiv@divisor+2,f
  3738  06D6  1903               	skipnz
  3739  06D7  0AA3               	incf	___aldiv@divisor+3,f
  3740  06D8  01AA               	clrf	___aldiv@sign
  3741  06D9  0AAA               	incf	___aldiv@sign,f
  3742  06DA                     l324:	
  3743  06DA  1FA7               	btfss	___aldiv@dividend+3,7
  3744  06DB  2EEB               	goto	l2139
  3745  06DC  09A4               	comf	___aldiv@dividend,f
  3746  06DD  09A5               	comf	___aldiv@dividend+1,f
  3747  06DE  09A6               	comf	___aldiv@dividend+2,f
  3748  06DF  09A7               	comf	___aldiv@dividend+3,f
  3749  06E0  0AA4               	incf	___aldiv@dividend,f
  3750  06E1  1903               	skipnz
  3751  06E2  0AA5               	incf	___aldiv@dividend+1,f
  3752  06E3  1903               	skipnz
  3753  06E4  0AA6               	incf	___aldiv@dividend+2,f
  3754  06E5  1903               	skipnz
  3755  06E6  0AA7               	incf	___aldiv@dividend+3,f
  3756  06E7  3001               	movlw	1
  3757  06E8  00A8               	movwf	??___aldiv
  3758  06E9  0828               	movf	??___aldiv,w
  3759  06EA  06AA               	xorwf	___aldiv@sign,f
  3760  06EB                     l2139:	
  3761  06EB  3000               	movlw	0
  3762  06EC  00AE               	movwf	___aldiv@quotient+3
  3763  06ED  3000               	movlw	0
  3764  06EE  00AD               	movwf	___aldiv@quotient+2
  3765  06EF  3000               	movlw	0
  3766  06F0  00AC               	movwf	___aldiv@quotient+1
  3767  06F1  3000               	movlw	0
  3768  06F2  00AB               	movwf	___aldiv@quotient
  3769  06F3  0823               	movf	___aldiv@divisor+3,w
  3770  06F4  0422               	iorwf	___aldiv@divisor+2,w
  3771  06F5  0421               	iorwf	___aldiv@divisor+1,w
  3772  06F6  0420               	iorwf	___aldiv@divisor,w
  3773  06F7  1903               	skipnz
  3774  06F8  2F40               	goto	l2161
  3775  06F9  01A9               	clrf	___aldiv@counter
  3776  06FA  0AA9               	incf	___aldiv@counter,f
  3777  06FB                     l2147:	
  3778  06FB  1BA3               	btfsc	___aldiv@divisor+3,7
  3779  06FC  2F0B               	goto	l2149
  3780  06FD  3001               	movlw	1
  3781  06FE  00A8               	movwf	??___aldiv
  3782  06FF                     u2735:	
  3783  06FF  1003               	clrc
  3784  0700  0DA0               	rlf	___aldiv@divisor,f
  3785  0701  0DA1               	rlf	___aldiv@divisor+1,f
  3786  0702  0DA2               	rlf	___aldiv@divisor+2,f
  3787  0703  0DA3               	rlf	___aldiv@divisor+3,f
  3788  0704  0BA8               	decfsz	??___aldiv,f
  3789  0705  2EFF               	goto	u2735
  3790  0706  3001               	movlw	1
  3791  0707  00A8               	movwf	??___aldiv
  3792  0708  0828               	movf	??___aldiv,w
  3793  0709  07A9               	addwf	___aldiv@counter,f
  3794  070A  2EFB               	goto	l2147
  3795  070B                     l2149:	
  3796  070B  3001               	movlw	1
  3797  070C  00A8               	movwf	??___aldiv
  3798  070D                     u2755:	
  3799  070D  1003               	clrc
  3800  070E  0DAB               	rlf	___aldiv@quotient,f
  3801  070F  0DAC               	rlf	___aldiv@quotient+1,f
  3802  0710  0DAD               	rlf	___aldiv@quotient+2,f
  3803  0711  0DAE               	rlf	___aldiv@quotient+3,f
  3804  0712  0BA8               	decfsz	??___aldiv,f
  3805  0713  2F0D               	goto	u2755
  3806  0714  0823               	movf	___aldiv@divisor+3,w
  3807  0715  0227               	subwf	___aldiv@dividend+3,w
  3808  0716  1D03               	skipz
  3809  0717  2F22               	goto	u2765
  3810  0718  0822               	movf	___aldiv@divisor+2,w
  3811  0719  0226               	subwf	___aldiv@dividend+2,w
  3812  071A  1D03               	skipz
  3813  071B  2F22               	goto	u2765
  3814  071C  0821               	movf	___aldiv@divisor+1,w
  3815  071D  0225               	subwf	___aldiv@dividend+1,w
  3816  071E  1D03               	skipz
  3817  071F  2F22               	goto	u2765
  3818  0720  0820               	movf	___aldiv@divisor,w
  3819  0721  0224               	subwf	___aldiv@dividend,w
  3820  0722                     u2765:	
  3821  0722  1C03               	skipc
  3822  0723  2F33               	goto	l2157
  3823  0724  0820               	movf	___aldiv@divisor,w
  3824  0725  02A4               	subwf	___aldiv@dividend,f
  3825  0726  0821               	movf	___aldiv@divisor+1,w
  3826  0727  1C03               	skipc
  3827  0728  0F21               	incfsz	___aldiv@divisor+1,w
  3828  0729  02A5               	subwf	___aldiv@dividend+1,f
  3829  072A  0822               	movf	___aldiv@divisor+2,w
  3830  072B  1C03               	skipc
  3831  072C  0F22               	incfsz	___aldiv@divisor+2,w
  3832  072D  02A6               	subwf	___aldiv@dividend+2,f
  3833  072E  0823               	movf	___aldiv@divisor+3,w
  3834  072F  1C03               	skipc
  3835  0730  0F23               	incfsz	___aldiv@divisor+3,w
  3836  0731  02A7               	subwf	___aldiv@dividend+3,f
  3837  0732  142B               	bsf	___aldiv@quotient,0
  3838  0733                     l2157:	
  3839  0733  3001               	movlw	1
  3840  0734                     u2775:	
  3841  0734  1003               	clrc
  3842  0735  0CA3               	rrf	___aldiv@divisor+3,f
  3843  0736  0CA2               	rrf	___aldiv@divisor+2,f
  3844  0737  0CA1               	rrf	___aldiv@divisor+1,f
  3845  0738  0CA0               	rrf	___aldiv@divisor,f
  3846  0739  3EFF               	addlw	-1
  3847  073A  1D03               	skipz
  3848  073B  2F34               	goto	u2775
  3849  073C  3001               	movlw	1
  3850  073D  02A9               	subwf	___aldiv@counter,f
  3851  073E  1D03               	btfss	3,2
  3852  073F  2F0B               	goto	l2149
  3853  0740                     l2161:	
  3854  0740  082A               	movf	___aldiv@sign,w
  3855  0741  1903               	btfsc	3,2
  3856  0742  2F4E               	goto	l2165
  3857  0743  09AB               	comf	___aldiv@quotient,f
  3858  0744  09AC               	comf	___aldiv@quotient+1,f
  3859  0745  09AD               	comf	___aldiv@quotient+2,f
  3860  0746  09AE               	comf	___aldiv@quotient+3,f
  3861  0747  0AAB               	incf	___aldiv@quotient,f
  3862  0748  1903               	skipnz
  3863  0749  0AAC               	incf	___aldiv@quotient+1,f
  3864  074A  1903               	skipnz
  3865  074B  0AAD               	incf	___aldiv@quotient+2,f
  3866  074C  1903               	skipnz
  3867  074D  0AAE               	incf	___aldiv@quotient+3,f
  3868  074E                     l2165:	
  3869  074E  082E               	movf	___aldiv@quotient+3,w
  3870  074F  00A3               	movwf	?___aldiv+3
  3871  0750  082D               	movf	___aldiv@quotient+2,w
  3872  0751  00A2               	movwf	?___aldiv+2
  3873  0752  082C               	movf	___aldiv@quotient+1,w
  3874  0753  00A1               	movwf	?___aldiv+1
  3875  0754  082B               	movf	___aldiv@quotient,w
  3876  0755  00A0               	movwf	?___aldiv
  3877  0756  0008               	return
  3878  0757                     __end_of___aldiv:	
  3879                           
  3880                           	psect	text16
  3881  07D6                     __ptext16:	
  3882 ;; *************** function _isr *****************
  3883 ;; Defined at:
  3884 ;;		line 144 in file "main.c"
  3885 ;; Parameters:    Size  Location     Type
  3886 ;;		None
  3887 ;; Auto vars:     Size  Location     Type
  3888 ;;		None
  3889 ;; Return value:  Size  Location     Type
  3890 ;;                  1    wreg      void 
  3891 ;; Registers used:
  3892 ;;		wreg, status,2, status,0, pclath, cstack
  3893 ;; Tracked objects:
  3894 ;;		On entry : 0/0
  3895 ;;		On exit  : 0/0
  3896 ;;		Unchanged: 0/0
  3897 ;; Data sizes:     COMMON   BANK0   BANK1   BANK3   BANK2
  3898 ;;      Params:         0       0       0       0       0
  3899 ;;      Locals:         0       0       0       0       0
  3900 ;;      Temps:          2       0       0       0       0
  3901 ;;      Totals:         2       0       0       0       0
  3902 ;;Total ram usage:        2 bytes
  3903 ;; Hardware stack levels used:    1
  3904 ;; Hardware stack levels required when called:    3
  3905 ;; This function calls:
  3906 ;;		i1_changeMode
  3907 ;; This function is called by:
  3908 ;;		Interrupt level 1
  3909 ;; This function uses a non-reentrant model
  3910 ;;
  3911                           
  3912                           
  3913                           ;psect for function _isr
  3914  07D6                     _isr:	
  3915                           
  3916                           ;main.c: 145:     if(INTCONbits.RBIF == 1){
  3917  07D6  1C0B               	btfss	11,0	;volatile
  3918  07D7  2FE2               	goto	i1l157
  3919                           
  3920                           ;main.c: 146:         if(gap == 1){
  3921  07D8  0376               	decf	_gap,w
  3922  07D9  0477               	iorwf	_gap+1,w
  3923  07DA  1D03               	btfss	3,2
  3924  07DB  2FDE               	goto	i1l2077
  3925                           
  3926                           ;main.c: 147:             changeMode('1');
  3927  07DC  3031               	movlw	49
  3928  07DD  2FDF               	goto	L4
  3929  07DE                     i1l2077:	
  3930                           ;main.c: 148:         }
  3931                           
  3932                           
  3933                           ;main.c: 150:             changeMode('0');
  3934  07DE  3030               	movlw	48
  3935  07DF                     L4:	
  3936  07DF  158A  2697  118A   	fcall	i1_changeMode
  3937  07E2                     i1l157:	
  3938  07E2  0875               	movf	??_isr+1,w
  3939  07E3  008A               	movwf	10
  3940  07E4  0E74               	swapf	??_isr^(0+4294967168),w
  3941  07E5  0083               	movwf	3
  3942  07E6  0EFE               	swapf	126,f
  3943  07E7  0E7E               	swapf	126,w
  3944  07E8  0009               	retfie
  3945  07E9                     __end_of_isr:	
  3946                           
  3947                           	psect	intentry
  3948  0004                     __pintentry:	
  3949                           ;incstack = 0
  3950                           ; Regs used in _isr: [wreg+status,2+status,0+pclath+cstack]
  3951                           
  3952  0004                     interrupt_function:	
  3953  007E                     saved_w	set	btemp
  3954  0004  00FE               	movwf	btemp
  3955  0005  0E03               	swapf	3,w
  3956  0006  00F4               	movwf	??_isr
  3957  0007  080A               	movf	10,w
  3958  0008  00F5               	movwf	??_isr+1
  3959  0009  118A  2FD6         	ljmp	_isr
  3960                           
  3961                           	psect	text17
  3962  0E97                     __ptext17:	
  3963 ;; *************** function i1_changeMode *****************
  3964 ;; Defined at:
  3965 ;;		line 139 in file "main.c"
  3966 ;; Parameters:    Size  Location     Type
  3967 ;;  m               1    wreg     unsigned char 
  3968 ;; Auto vars:     Size  Location     Type
  3969 ;;  m               1    3[COMMON] unsigned char 
  3970 ;; Return value:  Size  Location     Type
  3971 ;;                  1    wreg      void 
  3972 ;; Registers used:
  3973 ;;		wreg, status,2, status,0, pclath, cstack
  3974 ;; Tracked objects:
  3975 ;;		On entry : 0/0
  3976 ;;		On exit  : 0/0
  3977 ;;		Unchanged: 0/0
  3978 ;; Data sizes:     COMMON   BANK0   BANK1   BANK3   BANK2
  3979 ;;      Params:         0       0       0       0       0
  3980 ;;      Locals:         1       0       0       0       0
  3981 ;;      Temps:          1       0       0       0       0
  3982 ;;      Totals:         2       0       0       0       0
  3983 ;;Total ram usage:        2 bytes
  3984 ;; Hardware stack levels used:    1
  3985 ;; Hardware stack levels required when called:    2
  3986 ;; This function calls:
  3987 ;;		i1_writeData
  3988 ;; This function is called by:
  3989 ;;		_isr
  3990 ;; This function uses a non-reentrant model
  3991 ;;
  3992                           
  3993                           
  3994                           ;psect for function i1_changeMode
  3995  0E97                     i1_changeMode:	
  3996                           
  3997                           ;incstack = 0
  3998                           ; Regs used in i1_changeMode: [wreg+status,2+status,0+pclath+cstack]
  3999                           ;i1changeMode@m stored from wreg
  4000  0E97  00F3               	movwf	i1changeMode@m
  4001                           
  4002                           ;main.c: 140:     mode = m;
  4003  0E98  0873               	movf	i1changeMode@m,w
  4004  0E99  00F2               	movwf	??i1_changeMode
  4005  0E9A  0872               	movf	??i1_changeMode,w
  4006  0E9B  00F8               	movwf	_mode
  4007                           
  4008                           ;main.c: 141:     writeData(mode);
  4009  0E9C  0878               	movf	_mode,w
  4010  0E9D  158A  268B         	fcall	i1_writeData
  4011  0E9F  0008               	return
  4012  0EA0                     __end_ofi1_changeMode:	
  4013                           
  4014                           	psect	text18
  4015  0E8B                     __ptext18:	
  4016 ;; *************** function i1_writeData *****************
  4017 ;; Defined at:
  4018 ;;		line 98 in file "main.c"
  4019 ;; Parameters:    Size  Location     Type
  4020 ;;  c               1    wreg     unsigned char 
  4021 ;; Auto vars:     Size  Location     Type
  4022 ;;  c               1    1[COMMON] unsigned char 
  4023 ;; Return value:  Size  Location     Type
  4024 ;;                  1    wreg      void 
  4025 ;; Registers used:
  4026 ;;		wreg, status,2, status,0, pclath, cstack
  4027 ;; Tracked objects:
  4028 ;;		On entry : 0/0
  4029 ;;		On exit  : 0/0
  4030 ;;		Unchanged: 0/0
  4031 ;; Data sizes:     COMMON   BANK0   BANK1   BANK3   BANK2
  4032 ;;      Params:         0       0       0       0       0
  4033 ;;      Locals:         1       0       0       0       0
  4034 ;;      Temps:          0       0       0       0       0
  4035 ;;      Totals:         1       0       0       0       0
  4036 ;;Total ram usage:        1 bytes
  4037 ;; Hardware stack levels used:    1
  4038 ;; Hardware stack levels required when called:    1
  4039 ;; This function calls:
  4040 ;;		i1_UART_Write
  4041 ;; This function is called by:
  4042 ;;		i1_changeMode
  4043 ;; This function uses a non-reentrant model
  4044 ;;
  4045                           
  4046                           
  4047                           ;psect for function i1_writeData
  4048  0E8B                     i1_writeData:	
  4049                           
  4050                           ;incstack = 0
  4051                           ; Regs used in i1_writeData: [wreg+status,2+status,0+pclath+cstack]
  4052                           ;i1writeData@c stored from wreg
  4053  0E8B  00F1               	movwf	i1writeData@c
  4054                           
  4055                           ;main.c: 99:     UART_Write(c);
  4056  0E8C  0871               	movf	i1writeData@c,w
  4057  0E8D  158A  26A0         	fcall	i1_UART_Write
  4058  0E8F  0008               	return
  4059  0E90                     __end_ofi1_writeData:	
  4060                           
  4061                           	psect	text19
  4062  0EA0                     __ptext19:	
  4063 ;; *************** function i1_UART_Write *****************
  4064 ;; Defined at:
  4065 ;;		line 52 in file "./uart.h"
  4066 ;; Parameters:    Size  Location     Type
  4067 ;;  data            1    wreg     unsigned char 
  4068 ;; Auto vars:     Size  Location     Type
  4069 ;;  data            1    0[COMMON] unsigned char 
  4070 ;; Return value:  Size  Location     Type
  4071 ;;                  1    wreg      void 
  4072 ;; Registers used:
  4073 ;;		wreg
  4074 ;; Tracked objects:
  4075 ;;		On entry : 0/0
  4076 ;;		On exit  : 0/0
  4077 ;;		Unchanged: 0/0
  4078 ;; Data sizes:     COMMON   BANK0   BANK1   BANK3   BANK2
  4079 ;;      Params:         0       0       0       0       0
  4080 ;;      Locals:         1       0       0       0       0
  4081 ;;      Temps:          0       0       0       0       0
  4082 ;;      Totals:         1       0       0       0       0
  4083 ;;Total ram usage:        1 bytes
  4084 ;; Hardware stack levels used:    1
  4085 ;; This function calls:
  4086 ;;		Nothing
  4087 ;; This function is called by:
  4088 ;;		i1_writeData
  4089 ;; This function uses a non-reentrant model
  4090 ;;
  4091                           
  4092                           
  4093                           ;psect for function i1_UART_Write
  4094  0EA0                     i1_UART_Write:	
  4095                           
  4096                           ;incstack = 0
  4097                           ; Regs used in i1_UART_Write: [wreg]
  4098                           ;i1UART_Write@data stored from wreg
  4099  0EA0  00F0               	movwf	i1UART_Write@data
  4100  0EA1                     i1l98:	
  4101                           ;./uart.h: 52: void UART_Write(char data);./uart.h: 53: {;./uart.h: 54:   while(!TRMT);
  4102                           
  4103  0EA1  1683               	bsf	3,5	;RP0=1, select bank1
  4104  0EA2  1303               	bcf	3,6	;RP1=0, select bank1
  4105  0EA3  1C98               	btfss	24,1	;volatile
  4106  0EA4  2EA1               	goto	i1l98
  4107                           
  4108                           ;./uart.h: 55:   TXREG = data;
  4109  0EA5  0870               	movf	i1UART_Write@data,w
  4110  0EA6  1283               	bcf	3,5	;RP0=0, select bank0
  4111  0EA7  1303               	bcf	3,6	;RP1=0, select bank0
  4112  0EA8  0099               	movwf	25	;volatile
  4113  0EA9  0008               	return
  4114  0EAA                     __end_ofi1_UART_Write:	
  4115  007E                     btemp	set	126	;btemp
  4116  007E                     wtemp0	set	126


Data Sizes:
    Strings     0
    Constant    0
    Data        1
    BSS         2
    Persistent  0
    Stack       0

Auto Spaces:
    Space          Size  Autos    Used
    COMMON           14      6       9
    BANK0            80     74      74
    BANK1            80     42      42
    BANK3            96      0       0
    BANK2            96      0       0

Pointer List with Targets:

    average@arr	PTR float  size(1) Largest target is 40
		 -> distanceFront@arr(BANK1[40]), distanceBack@arr(BANK1[40]), 


Critical Paths under _main in COMMON

    None.

Critical Paths under _isr in COMMON

    _isr->i1_changeMode
    i1_changeMode->i1_writeData
    i1_writeData->i1_UART_Write

Critical Paths under _main in BANK0

    _main->___flge
    _distanceFront->_ultrasonicFront
    _ultrasonicFront->_calculateDistance
    _distanceBack->_ultrasonicBack
    _ultrasonicBack->_calculateDistance
    _calculateDistance->___fldiv
    _average->___fldiv
    ___fldiv->___xxtofl
    _changeMode->_writeData
    _writeData->_UART_Write
    ___flge->_distanceFront
    _UART_Init->___aldiv

Critical Paths under _isr in BANK0

    None.

Critical Paths under _main in BANK1

    _main->_distanceBack
    _main->_distanceFront
    ___flge->_distanceFront

Critical Paths under _isr in BANK1

    None.

Critical Paths under _main in BANK3

    None.

Critical Paths under _isr in BANK3

    None.

Critical Paths under _main in BANK2

    None.

Critical Paths under _isr in BANK2

    None.

Call Graph Tables:

 ---------------------------------------------------------------------------------
 (Depth) Function   	        Calls       Base Space   Used Autos Params    Refs
 ---------------------------------------------------------------------------------
 (0) _main                                                 3     3      0   21029
                                             71 BANK0      3     3      0
                          _UART_Init
                             ___flge
                         _changeMode
                       _distanceBack
                      _distanceFront
 ---------------------------------------------------------------------------------
 (1) _distanceFront                                       47    43      4    9742
                                             54 BANK0      5     1      4
                                              0 BANK1     42    42      0
                            _average
                    _ultrasonicFront
 ---------------------------------------------------------------------------------
 (2) _ultrasonicFront                                     10     6      4    4702
                                             44 BANK0     10     6      4
                           ___xxtofl
                  _calculateDistance
 ---------------------------------------------------------------------------------
 (1) _distanceBack                                        43    43      0    9742
                                             54 BANK0      1     1      0
                                              0 BANK1     42    42      0
                            _average
                     _ultrasonicBack
 ---------------------------------------------------------------------------------
 (2) _ultrasonicBack                                      10     6      4    4702
                                             44 BANK0     10     6      4
                           ___xxtofl
                  _calculateDistance
 ---------------------------------------------------------------------------------
 (3) _calculateDistance                                    4     0      4    4118
                                             40 BANK0      4     0      4
                            ___fladd
                            ___fldiv
 ---------------------------------------------------------------------------------
 (2) _average                                             13     9      4    4870
                                             40 BANK0     13     9      4
                            ___fladd
                            ___fldiv
                           ___xxtofl
 ---------------------------------------------------------------------------------
 (3) ___xxtofl                                            14    10      4     550
                                              0 BANK0     14    10      4
 ---------------------------------------------------------------------------------
 (4) ___fldiv                                             26    18      8    1425
                                             14 BANK0     26    18      8
                           ___xxtofl (ARG)
 ---------------------------------------------------------------------------------
 (4) ___fladd                                             20    12      8    2414
                                              0 BANK0     20    12      8
 ---------------------------------------------------------------------------------
 (1) _changeMode                                           2     2      0      93
                                              2 BANK0      2     2      0
                          _writeData
 ---------------------------------------------------------------------------------
 (2) _writeData                                            1     1      0      62
                                              1 BANK0      1     1      0
                         _UART_Write
 ---------------------------------------------------------------------------------
 (3) _UART_Write                                           1     1      0      31
                                              0 BANK0      1     1      0
 ---------------------------------------------------------------------------------
 (1) ___flge                                              12     4      8     334
                                             59 BANK0     12     4      8
                      _distanceFront (ARG)
 ---------------------------------------------------------------------------------
 (1) _UART_Init                                           18    14      4    1118
                                             15 BANK0     18    14      4
                            ___aldiv
 ---------------------------------------------------------------------------------
 (2) ___aldiv                                             15     7      8     805
                                              0 BANK0     15     7      8
 ---------------------------------------------------------------------------------
 Estimated maximum stack depth 4
 ---------------------------------------------------------------------------------
 (Depth) Function   	        Calls       Base Space   Used Autos Params    Refs
 ---------------------------------------------------------------------------------
 (5) _isr                                                  2     2      0      66
                                              4 COMMON     2     2      0
                       i1_changeMode
 ---------------------------------------------------------------------------------
 (6) i1_changeMode                                         2     2      0      66
                                              2 COMMON     2     2      0
                        i1_writeData
 ---------------------------------------------------------------------------------
 (7) i1_writeData                                          1     1      0      44
                                              1 COMMON     1     1      0
                       i1_UART_Write
 ---------------------------------------------------------------------------------
 (8) i1_UART_Write                                         1     1      0      22
                                              0 COMMON     1     1      0
 ---------------------------------------------------------------------------------
 Estimated maximum stack depth 8
 ---------------------------------------------------------------------------------

 Call Graph Graphs:

 _main (ROOT)
   _UART_Init
     ___aldiv
   ___flge
     _distanceFront (ARG)
       _average
         ___fladd
         ___fldiv
           ___xxtofl (ARG)
         ___xxtofl
       _ultrasonicFront
         ___xxtofl
         _calculateDistance
           ___fladd
           ___fldiv
             ___xxtofl (ARG)
   _changeMode
     _writeData
       _UART_Write
   _distanceBack
     _average
       ___fladd
       ___fldiv
         ___xxtofl (ARG)
       ___xxtofl
     _ultrasonicBack
       ___xxtofl
       _calculateDistance
         ___fladd
         ___fldiv
           ___xxtofl (ARG)
   _distanceFront
     _average
       ___fladd
       ___fldiv
         ___xxtofl (ARG)
       ___xxtofl
     _ultrasonicFront
       ___xxtofl
       _calculateDistance
         ___fladd
         ___fldiv
           ___xxtofl (ARG)

 _isr (ROOT)
   i1_changeMode
     i1_writeData
       i1_UART_Write

 Address spaces:
Name               Size   Autos  Total    Cost      Usage
BANK3               60      0       0       9        0.0%
BITBANK3            60      0       0       8        0.0%
SFR3                 0      0       0       4        0.0%
BITSFR3              0      0       0       4        0.0%
BANK2               60      0       0      11        0.0%
BITBANK2            60      0       0      10        0.0%
SFR2                 0      0       0       5        0.0%
BITSFR2              0      0       0       5        0.0%
BANK1               50     2A      2A       7       52.5%
BITBANK1            50      0       0       6        0.0%
SFR1                 0      0       0       2        0.0%
BITSFR1              0      0       0       2        0.0%
BANK0               50     4A      4A       5       92.5%
BITBANK0            50      0       0       4        0.0%
SFR0                 0      0       0       1        0.0%
BITSFR0              0      0       0       1        0.0%
COMMON               E      6       9       1       64.3%
BITCOMMON            E      0       0       0        0.0%
CODE                 0      0       0       0        0.0%
DATA                 0      0      7D      12        0.0%
ABS                  0      0      7D       3        0.0%
NULL                 0      0       0       0        0.0%
STACK                0      0       0       2        0.0%
EEDATA             100      0       0       0        0.0%


Microchip Technology PIC Macro Assembler V2.05 build -831301201 
Symbol Table                                                                                   Fri Jun  7 22:00:07 2019

              ___fldiv@aexp 0047                ___fldiv@bexp 0046                ___fldiv@sign 003F  
               __CFG_CP$OFF 0000                          l98 07EC               ?_distanceBack 0070  
           _ultrasonicFront 0F6E                         l131 0F38                         l140 0F80  
                       l128 0F35                         l137 0F7D                         l324 06DA  
                       l433 064F                         l436 06B5                         l700 060D  
                       l630 03D1                         l552 0067                         l632 03DF  
                       l608 0292                         l556 0100                         l573 01B9  
                       l558 00DE                         l594 0239                         l586 0221  
                       l692 05ED                         l686 05AD                         l699 0603  
                       _RA0 0028                         _RA1 0029                         _RB1 0031  
                       _RA4 002C                         _RB3 0033                __CFG_CPD$OFF 0000  
                       _gap 0076                         _isr 07D6                         fsr0 0004  
                       indf 0000                __CFG_IESO$ON 0000              ?_distanceFront 0056  
     __size_ofi1_changeMode 0009         __end_ofi1_writeData 0E90                __CFG_LVP$OFF 0000  
                      l2123 0764                        l2125 07A8                        l2221 0EEA  
                      l2205 0FBA                        l2161 0740                        l1601 01EC  
                      l2147 06FB                        l2139 06EB                        l2165 074E  
                      l2157 0733                        l2149 070B                        l1605 01EE  
                      l1525 00E9                        l1517 00AD                        l1453 0032  
                      l1623 0231                        l1551 012F                        l1543 010E  
                      l1527 00EB                        l1535 00FA                        l2177 04A1  
                      l1553 0131                        l1561 0141                        l1481 005F  
                      l1457 0035                        l1713 032B                        l1801 05C0  
                      l2281 0520                        l1627 0235                        l1571 01AB  
                      l1459 003D                        l1731 0336                        l1707 030C  
                      l1715 02E8                        l1651 0264                        l1811 0601  
                      l1803 05D2                        l1477 005C                        l1733 0353  
                      l1717 0330                        l1653 026C                        l1813 05F2  
                      l1487 0071                        l1743 036C                        l1671 028A  
                      l1647 0261                        l1593 01E1                        l1753 039E  
                      l1681 02B1                        l1825 062A                        l1587 01DA  
                      l1579 01CB                        l1595 01E3                        l1739 036A  
                      l1667 0287                        l2299 0589                        l1757 03B7  
                      l1687 02BD                        l1791 05A5                        l1769 03DB  
                      l1797 05BC                        l1983 0669                        l1987 068F  
                      ?_isr 0070                        _BRGH 04C2                        _CREN 00C4  
                      u2045 0389                        u2205 0615                        u2125 05C9  
                      u1430 00CD                        u2055 03A7                        u3007 0583  
                      u1440 00CE                        u1425 00C1                        u2065 03C2  
                      u2145 05E5                        u3017 0F77                        u3027 0F2F  
                      u2165 05FA                        u1625 01CD                        u1571 016C  
                      u1563 0153                        u1555 0135                        u1475 00EF  
                      u1580 0180                        u1572 016D                        u1725 020B  
                      u1581 0181                        u1573 0172                        u1582 0186  
                      u1574 0173                        u2551 067A                        u1583 0187  
                      u1575 0178                        u2552 067B                        u1576 0179  
                      u2553 0680                        u2554 0681                        u2571 06A0  
                      u2555 0686                        u1915 0305                        u2572 06A1  
                      u2556 0687                        u2821 0422                        u2805 03F2  
                      u2573 06A6                        u1925 031A                        u2822 0423  
                      u2574 06A7                        u2735 06FF                        u2823 0428  
                      u2815 040B                        u2575 06AC                        u2824 0429  
                      u2576 06AD                        u2825 042E                        u2905 0EF4  
                      u2826 042F                        u2755 070D                        u1955 033A  
                      u2915 0F1A                        u2765 0722                        u2861 0480  
                      u2845 0450                        u1885 02F1                        u2685 077D  
                      u2862 0481                        u2775 0734                        u2863 0486  
                      u2855 0469                        u1975 0345                        u1895 02FA  
                      u2695 076E                        u2864 0487                        u2865 048C  
                      u2866 048D                        u2947 04E8                        _RCIF 0065  
                      u2885 0FC4                        u2957 04FD                        u2895 0FEA  
                      u2967 0512                        u2977 0549                        u2987 055E  
                      u2997 0570                        i1l98 0EA1                        _SPEN 00C7  
                      _TRMT 04C1                        _TXEN 04C5                        _SYNC 04C4  
              __CFG_WRT$OFF 0000               __CFG_FCMEN$ON 0000                        _main 04BC  
                      _mode 0078                        btemp 007E               __CFG_BOREN$ON 0000  
                      start 000B             ___fldiv@new_exp 0040               __CFG_MCLRE$ON 0000  
            ??_distanceBack 0056                       ??_isr 0074                i1_changeMode 0E97  
           __end_of___aldiv 0757             __end_of___fladd 0244                       ?_main 0070  
           __end_of___fldiv 03E7               __CFG_WDTE$OFF 0000                       _ANSEL 009B  
                     _T1CON 0010                       i1l157 07E2                       _RCREG 001A  
                     _TMR1H 000F                       _TMR1L 000E                       _SPBRG 0099  
                     _TXREG 0019              __CFG_CCPMX$RB0 0000                 ?_UART_Write 0070  
        __size_of_UART_Init 00D5             __end_of_average 07D6                       pclath 000A  
                     status 0003                       wtemp0 007E     ultrasonicFront@distance 0052  
           __initialization 000D     __end_of_ultrasonicFront 0FB6                __end_of_main 058E  
                    ??_main 0067                 i1_writeData 0E8B             ??_distanceFront 005A  
                    i1l2077 07DE                      _INTCON 000B                      _OSCCON 008F  
                    _TRISA0 0428                      _TRISA1 0429                      _TRISB1 0431  
                    _TRISB2 0432                      _TRISA4 042C                      _TRISB3 0433  
                    _TRISB5 0435            __end_of___xxtofl 0633              __CFG_PWRTE$OFF 0000  
             distanceBack@i 00C8           __end_of_UART_Init 04BC                      ___flge 0633  
       __size_of_UART_Write 000C                   ??___aldiv 0028                   ??___fladd 0028  
                 ??___fldiv 0036                   ??_average 004C                __pdataCOMMON 0078  
                    saved_w 007E                  ___flge@ff1 005B                  ___flge@ff2 005F  
      __end_of_distanceBack 0F26                ___xxtofl@arg 002A                ___xxtofl@exp 0029  
              ___xxtofl@val 0020     __end_of__initialization 0012               ?i1_UART_Write 0070  
            __pcstackCOMMON 0070            ?_ultrasonicFront 004C           _calculateDistance 0EAA  
        ?_calculateDistance 0048     __size_of_ultrasonicBack 0048                  _changeMode 07F5  
       ??_calculateDistance 004C              ??i1_UART_Write 0070                  __pmaintext 04BC  
                   ?___flge 005B                  __pintentry 0004      ultrasonicBack@distance 0052  
 __end_of_calculateDistance 0EE6               i1changeMode@m 0073                   ?___xxtofl 0020  
              ??_UART_Write 0020          __size_of_writeData 0007                     ___aldiv 06C8  
           __size_of___flge 0095                     ___fladd 0015                     ___fldiv 0244  
        __end_of_UART_Write 07F5              distanceFront@i 00C8                     __ptext1 0FB6  
                   __ptext2 0F6E                     __ptext3 0EE6                     __ptext4 0F26  
                   __ptext5 0EAA                     __ptext6 0757                     __ptext7 058E  
                   __ptext8 0244                     __ptext9 0015                ?i1_writeData 0070  
                   _average 0757                   _T1CONbits 0010                __size_of_isr 0013  
                ??___xxtofl 0024            ___aldiv@dividend 0024       __size_of_distanceBack 0040  
      end_of_initialization 0012                 ?_changeMode 0070            ___aldiv@quotient 002B  
                 _UART_Init 03E7                _distanceBack 0EE6  __size_of_calculateDistance 003C  
            UART_Write@data 0020           __end_of_writeData 0E97                 ___fladd@grs 0033  
             ___xxtofl@sign 0028       __end_of_distanceFront 1000        __end_ofi1_UART_Write 0EAA  
               ___fldiv@grs 0042                 ___fldiv@rem 003B              _ultrasonicBack 0F26  
                average@arr 004E                  average@sum 004F              __end_of___flge 06C8  
                ?_UART_Init 002F               __pidataCOMMON 0003         __size_of_changeMode 000B  
       start_initialization 000D      __end_of_ultrasonicBack 0F6E                 __end_of_isr 07E9  
                  ??___flge 0063               ?i1_changeMode 0070    __size_of_ultrasonicFront 0048  
                 ___fladd@a 0024                   ___fladd@b 0020                   ___fldiv@a 002E  
                 ___fldiv@b 0032                 __pbssCOMMON 0076        __size_ofi1_writeData 0005  
                 ___latbits 0001               __pcstackBANK0 0020               __pcstackBANK1 00A0  
           ?_ultrasonicBack 004C                i1writeData@c 0071           __size_of___xxtofl 00A5  
          distanceFront@arr 00A0                    ?___aldiv 0020                    ?___fladd 0020  
                  ?___fldiv 002E              ??i1_changeMode 0072                 ??_UART_Init 0033  
     __size_ofi1_UART_Write 000A                    ?_average 0048                  UART_Init@x 003F  
              ??_changeMode 0022             ___aldiv@divisor 0020           interrupt_function 0004  
           ___aldiv@counter 0029                i1_UART_Write 0EA0           UART_Init@baudrate 002F  
        __end_of_changeMode 0800                   _writeData 0E90           ??_ultrasonicFront 0050  
          i1UART_Write@data 0070             distanceBack@arr 00A0            __size_of___aldiv 008F  
          __size_of___fladd 022F            __size_of___fldiv 01A3                 changeMode@m 0023  
        calculateDistance@d 0048            __size_of_average 007F                    ___xxtofl 058E  
                ?_writeData 0070                    __ptext10 07F5                    __ptext11 0E90  
                  __ptext12 07E9                    __ptext13 0633                    __ptext14 03E7  
                  __ptext15 06C8                    __ptext16 07D6                    __ptext17 0E97  
                  __ptext18 0E8B                    __ptext19 0EA0        __end_ofi1_changeMode 0EA0  
             __size_of_main 00D2                  writeData@c 0021      __size_of_distanceFront 004A  
                  average@i 0053                    average@l 0048            ??_ultrasonicBack 0050  
                _INTCONbits 000B                    intlevel1 0000               ??i1_writeData 0071  
              ___aldiv@sign 002A                  _UART_Write 07E9               _distanceFront 0FB6  
               ??_writeData 0021               ___fladd@signs 0030          __CFG_FOSC$INTOSCIO 0000  
              ___fladd@aexp 0031                ___fladd@bexp 0032  
